
ctarget:     file format elf64-x86-64


Disassembly of section .init:

0000000000400c48 <_init>:
  400c48:	48 83 ec 08          	sub    $0x8,%rsp
  400c4c:	48 8b 05 a5 33 20 00 	mov    0x2033a5(%rip),%rax        # 603ff8 <__gmon_start__>
  400c53:	48 85 c0             	test   %rax,%rax
  400c56:	74 05                	je     400c5d <_init+0x15>
  400c58:	e8 43 02 00 00       	callq  400ea0 <__gmon_start__@plt>
  400c5d:	48 83 c4 08          	add    $0x8,%rsp
  400c61:	c3                   	retq   

Disassembly of section .plt:

0000000000400c70 <.plt>:
  400c70:	ff 35 92 33 20 00    	pushq  0x203392(%rip)        # 604008 <_GLOBAL_OFFSET_TABLE_+0x8>
  400c76:	ff 25 94 33 20 00    	jmpq   *0x203394(%rip)        # 604010 <_GLOBAL_OFFSET_TABLE_+0x10>
  400c7c:	0f 1f 40 00          	nopl   0x0(%rax)

0000000000400c80 <strcasecmp@plt>:
  400c80:	ff 25 92 33 20 00    	jmpq   *0x203392(%rip)        # 604018 <strcasecmp@GLIBC_2.2.5>
  400c86:	68 00 00 00 00       	pushq  $0x0
  400c8b:	e9 e0 ff ff ff       	jmpq   400c70 <.plt>

0000000000400c90 <__errno_location@plt>:
  400c90:	ff 25 8a 33 20 00    	jmpq   *0x20338a(%rip)        # 604020 <__errno_location@GLIBC_2.2.5>
  400c96:	68 01 00 00 00       	pushq  $0x1
  400c9b:	e9 d0 ff ff ff       	jmpq   400c70 <.plt>

0000000000400ca0 <srandom@plt>:
  400ca0:	ff 25 82 33 20 00    	jmpq   *0x203382(%rip)        # 604028 <srandom@GLIBC_2.2.5>
  400ca6:	68 02 00 00 00       	pushq  $0x2
  400cab:	e9 c0 ff ff ff       	jmpq   400c70 <.plt>

0000000000400cb0 <strncmp@plt>:
  400cb0:	ff 25 7a 33 20 00    	jmpq   *0x20337a(%rip)        # 604030 <strncmp@GLIBC_2.2.5>
  400cb6:	68 03 00 00 00       	pushq  $0x3
  400cbb:	e9 b0 ff ff ff       	jmpq   400c70 <.plt>

0000000000400cc0 <strcpy@plt>:
  400cc0:	ff 25 72 33 20 00    	jmpq   *0x203372(%rip)        # 604038 <strcpy@GLIBC_2.2.5>
  400cc6:	68 04 00 00 00       	pushq  $0x4
  400ccb:	e9 a0 ff ff ff       	jmpq   400c70 <.plt>

0000000000400cd0 <puts@plt>:
  400cd0:	ff 25 6a 33 20 00    	jmpq   *0x20336a(%rip)        # 604040 <puts@GLIBC_2.2.5>
  400cd6:	68 05 00 00 00       	pushq  $0x5
  400cdb:	e9 90 ff ff ff       	jmpq   400c70 <.plt>

0000000000400ce0 <write@plt>:
  400ce0:	ff 25 62 33 20 00    	jmpq   *0x203362(%rip)        # 604048 <write@GLIBC_2.2.5>
  400ce6:	68 06 00 00 00       	pushq  $0x6
  400ceb:	e9 80 ff ff ff       	jmpq   400c70 <.plt>

0000000000400cf0 <__stack_chk_fail@plt>:
  400cf0:	ff 25 5a 33 20 00    	jmpq   *0x20335a(%rip)        # 604050 <__stack_chk_fail@GLIBC_2.4>
  400cf6:	68 07 00 00 00       	pushq  $0x7
  400cfb:	e9 70 ff ff ff       	jmpq   400c70 <.plt>

0000000000400d00 <mmap@plt>:
  400d00:	ff 25 52 33 20 00    	jmpq   *0x203352(%rip)        # 604058 <mmap@GLIBC_2.2.5>
  400d06:	68 08 00 00 00       	pushq  $0x8
  400d0b:	e9 60 ff ff ff       	jmpq   400c70 <.plt>

0000000000400d10 <memset@plt>:
  400d10:	ff 25 4a 33 20 00    	jmpq   *0x20334a(%rip)        # 604060 <memset@GLIBC_2.2.5>
  400d16:	68 09 00 00 00       	pushq  $0x9
  400d1b:	e9 50 ff ff ff       	jmpq   400c70 <.plt>

0000000000400d20 <alarm@plt>:
  400d20:	ff 25 42 33 20 00    	jmpq   *0x203342(%rip)        # 604068 <alarm@GLIBC_2.2.5>
  400d26:	68 0a 00 00 00       	pushq  $0xa
  400d2b:	e9 40 ff ff ff       	jmpq   400c70 <.plt>

0000000000400d30 <close@plt>:
  400d30:	ff 25 3a 33 20 00    	jmpq   *0x20333a(%rip)        # 604070 <close@GLIBC_2.2.5>
  400d36:	68 0b 00 00 00       	pushq  $0xb
  400d3b:	e9 30 ff ff ff       	jmpq   400c70 <.plt>

0000000000400d40 <read@plt>:
  400d40:	ff 25 32 33 20 00    	jmpq   *0x203332(%rip)        # 604078 <read@GLIBC_2.2.5>
  400d46:	68 0c 00 00 00       	pushq  $0xc
  400d4b:	e9 20 ff ff ff       	jmpq   400c70 <.plt>

0000000000400d50 <__libc_start_main@plt>:
  400d50:	ff 25 2a 33 20 00    	jmpq   *0x20332a(%rip)        # 604080 <__libc_start_main@GLIBC_2.2.5>
  400d56:	68 0d 00 00 00       	pushq  $0xd
  400d5b:	e9 10 ff ff ff       	jmpq   400c70 <.plt>

0000000000400d60 <signal@plt>:
  400d60:	ff 25 22 33 20 00    	jmpq   *0x203322(%rip)        # 604088 <signal@GLIBC_2.2.5>
  400d66:	68 0e 00 00 00       	pushq  $0xe
  400d6b:	e9 00 ff ff ff       	jmpq   400c70 <.plt>

0000000000400d70 <gethostbyname@plt>:
  400d70:	ff 25 1a 33 20 00    	jmpq   *0x20331a(%rip)        # 604090 <gethostbyname@GLIBC_2.2.5>
  400d76:	68 0f 00 00 00       	pushq  $0xf
  400d7b:	e9 f0 fe ff ff       	jmpq   400c70 <.plt>

0000000000400d80 <__memmove_chk@plt>:
  400d80:	ff 25 12 33 20 00    	jmpq   *0x203312(%rip)        # 604098 <__memmove_chk@GLIBC_2.3.4>
  400d86:	68 10 00 00 00       	pushq  $0x10
  400d8b:	e9 e0 fe ff ff       	jmpq   400c70 <.plt>

0000000000400d90 <strtol@plt>:
  400d90:	ff 25 0a 33 20 00    	jmpq   *0x20330a(%rip)        # 6040a0 <strtol@GLIBC_2.2.5>
  400d96:	68 11 00 00 00       	pushq  $0x11
  400d9b:	e9 d0 fe ff ff       	jmpq   400c70 <.plt>

0000000000400da0 <memcpy@plt>:
  400da0:	ff 25 02 33 20 00    	jmpq   *0x203302(%rip)        # 6040a8 <memcpy@GLIBC_2.14>
  400da6:	68 12 00 00 00       	pushq  $0x12
  400dab:	e9 c0 fe ff ff       	jmpq   400c70 <.plt>

0000000000400db0 <time@plt>:
  400db0:	ff 25 fa 32 20 00    	jmpq   *0x2032fa(%rip)        # 6040b0 <time@GLIBC_2.2.5>
  400db6:	68 13 00 00 00       	pushq  $0x13
  400dbb:	e9 b0 fe ff ff       	jmpq   400c70 <.plt>

0000000000400dc0 <random@plt>:
  400dc0:	ff 25 f2 32 20 00    	jmpq   *0x2032f2(%rip)        # 6040b8 <random@GLIBC_2.2.5>
  400dc6:	68 14 00 00 00       	pushq  $0x14
  400dcb:	e9 a0 fe ff ff       	jmpq   400c70 <.plt>

0000000000400dd0 <_IO_getc@plt>:
  400dd0:	ff 25 ea 32 20 00    	jmpq   *0x2032ea(%rip)        # 6040c0 <_IO_getc@GLIBC_2.2.5>
  400dd6:	68 15 00 00 00       	pushq  $0x15
  400ddb:	e9 90 fe ff ff       	jmpq   400c70 <.plt>

0000000000400de0 <__isoc99_sscanf@plt>:
  400de0:	ff 25 e2 32 20 00    	jmpq   *0x2032e2(%rip)        # 6040c8 <__isoc99_sscanf@GLIBC_2.7>
  400de6:	68 16 00 00 00       	pushq  $0x16
  400deb:	e9 80 fe ff ff       	jmpq   400c70 <.plt>

0000000000400df0 <munmap@plt>:
  400df0:	ff 25 da 32 20 00    	jmpq   *0x2032da(%rip)        # 6040d0 <munmap@GLIBC_2.2.5>
  400df6:	68 17 00 00 00       	pushq  $0x17
  400dfb:	e9 70 fe ff ff       	jmpq   400c70 <.plt>

0000000000400e00 <__printf_chk@plt>:
  400e00:	ff 25 d2 32 20 00    	jmpq   *0x2032d2(%rip)        # 6040d8 <__printf_chk@GLIBC_2.3.4>
  400e06:	68 18 00 00 00       	pushq  $0x18
  400e0b:	e9 60 fe ff ff       	jmpq   400c70 <.plt>

0000000000400e10 <fopen@plt>:
  400e10:	ff 25 ca 32 20 00    	jmpq   *0x2032ca(%rip)        # 6040e0 <fopen@GLIBC_2.2.5>
  400e16:	68 19 00 00 00       	pushq  $0x19
  400e1b:	e9 50 fe ff ff       	jmpq   400c70 <.plt>

0000000000400e20 <getopt@plt>:
  400e20:	ff 25 c2 32 20 00    	jmpq   *0x2032c2(%rip)        # 6040e8 <getopt@GLIBC_2.2.5>
  400e26:	68 1a 00 00 00       	pushq  $0x1a
  400e2b:	e9 40 fe ff ff       	jmpq   400c70 <.plt>

0000000000400e30 <strtoul@plt>:
  400e30:	ff 25 ba 32 20 00    	jmpq   *0x2032ba(%rip)        # 6040f0 <strtoul@GLIBC_2.2.5>
  400e36:	68 1b 00 00 00       	pushq  $0x1b
  400e3b:	e9 30 fe ff ff       	jmpq   400c70 <.plt>

0000000000400e40 <gethostname@plt>:
  400e40:	ff 25 b2 32 20 00    	jmpq   *0x2032b2(%rip)        # 6040f8 <gethostname@GLIBC_2.2.5>
  400e46:	68 1c 00 00 00       	pushq  $0x1c
  400e4b:	e9 20 fe ff ff       	jmpq   400c70 <.plt>

0000000000400e50 <exit@plt>:
  400e50:	ff 25 aa 32 20 00    	jmpq   *0x2032aa(%rip)        # 604100 <exit@GLIBC_2.2.5>
  400e56:	68 1d 00 00 00       	pushq  $0x1d
  400e5b:	e9 10 fe ff ff       	jmpq   400c70 <.plt>

0000000000400e60 <connect@plt>:
  400e60:	ff 25 a2 32 20 00    	jmpq   *0x2032a2(%rip)        # 604108 <connect@GLIBC_2.2.5>
  400e66:	68 1e 00 00 00       	pushq  $0x1e
  400e6b:	e9 00 fe ff ff       	jmpq   400c70 <.plt>

0000000000400e70 <__fprintf_chk@plt>:
  400e70:	ff 25 9a 32 20 00    	jmpq   *0x20329a(%rip)        # 604110 <__fprintf_chk@GLIBC_2.3.4>
  400e76:	68 1f 00 00 00       	pushq  $0x1f
  400e7b:	e9 f0 fd ff ff       	jmpq   400c70 <.plt>

0000000000400e80 <__sprintf_chk@plt>:
  400e80:	ff 25 92 32 20 00    	jmpq   *0x203292(%rip)        # 604118 <__sprintf_chk@GLIBC_2.3.4>
  400e86:	68 20 00 00 00       	pushq  $0x20
  400e8b:	e9 e0 fd ff ff       	jmpq   400c70 <.plt>

0000000000400e90 <socket@plt>:
  400e90:	ff 25 8a 32 20 00    	jmpq   *0x20328a(%rip)        # 604120 <socket@GLIBC_2.2.5>
  400e96:	68 21 00 00 00       	pushq  $0x21
  400e9b:	e9 d0 fd ff ff       	jmpq   400c70 <.plt>

Disassembly of section .plt.got:

0000000000400ea0 <__gmon_start__@plt>:
  400ea0:	ff 25 52 31 20 00    	jmpq   *0x203152(%rip)        # 603ff8 <__gmon_start__>
  400ea6:	66 90                	xchg   %ax,%ax

Disassembly of section .text:

0000000000400eb0 <_start>:
  400eb0:	31 ed                	xor    %ebp,%ebp
  400eb2:	49 89 d1             	mov    %rdx,%r9
  400eb5:	5e                   	pop    %rsi
  400eb6:	48 89 e2             	mov    %rsp,%rdx
  400eb9:	48 83 e4 f0          	and    $0xfffffffffffffff0,%rsp
  400ebd:	50                   	push   %rax
  400ebe:	54                   	push   %rsp
  400ebf:	49 c7 c0 80 2e 40 00 	mov    $0x402e80,%r8
  400ec6:	48 c7 c1 10 2e 40 00 	mov    $0x402e10,%rcx
  400ecd:	48 c7 c7 89 11 40 00 	mov    $0x401189,%rdi
  400ed4:	e8 77 fe ff ff       	callq  400d50 <__libc_start_main@plt>
  400ed9:	f4                   	hlt    
  400eda:	66 0f 1f 44 00 00    	nopw   0x0(%rax,%rax,1)

0000000000400ee0 <deregister_tm_clones>:
  400ee0:	b8 b7 44 60 00       	mov    $0x6044b7,%eax
  400ee5:	55                   	push   %rbp
  400ee6:	48 2d b0 44 60 00    	sub    $0x6044b0,%rax
  400eec:	48 83 f8 0e          	cmp    $0xe,%rax
  400ef0:	48 89 e5             	mov    %rsp,%rbp
  400ef3:	76 1b                	jbe    400f10 <deregister_tm_clones+0x30>
  400ef5:	b8 00 00 00 00       	mov    $0x0,%eax
  400efa:	48 85 c0             	test   %rax,%rax
  400efd:	74 11                	je     400f10 <deregister_tm_clones+0x30>
  400eff:	5d                   	pop    %rbp
  400f00:	bf b0 44 60 00       	mov    $0x6044b0,%edi
  400f05:	ff e0                	jmpq   *%rax
  400f07:	66 0f 1f 84 00 00 00 	nopw   0x0(%rax,%rax,1)
  400f0e:	00 00 
  400f10:	5d                   	pop    %rbp
  400f11:	c3                   	retq   
  400f12:	0f 1f 40 00          	nopl   0x0(%rax)
  400f16:	66 2e 0f 1f 84 00 00 	nopw   %cs:0x0(%rax,%rax,1)
  400f1d:	00 00 00 

0000000000400f20 <register_tm_clones>:
  400f20:	be b0 44 60 00       	mov    $0x6044b0,%esi
  400f25:	55                   	push   %rbp
  400f26:	48 81 ee b0 44 60 00 	sub    $0x6044b0,%rsi
  400f2d:	48 c1 fe 03          	sar    $0x3,%rsi
  400f31:	48 89 e5             	mov    %rsp,%rbp
  400f34:	48 89 f0             	mov    %rsi,%rax
  400f37:	48 c1 e8 3f          	shr    $0x3f,%rax
  400f3b:	48 01 c6             	add    %rax,%rsi
  400f3e:	48 d1 fe             	sar    %rsi
  400f41:	74 15                	je     400f58 <register_tm_clones+0x38>
  400f43:	b8 00 00 00 00       	mov    $0x0,%eax
  400f48:	48 85 c0             	test   %rax,%rax
  400f4b:	74 0b                	je     400f58 <register_tm_clones+0x38>
  400f4d:	5d                   	pop    %rbp
  400f4e:	bf b0 44 60 00       	mov    $0x6044b0,%edi
  400f53:	ff e0                	jmpq   *%rax
  400f55:	0f 1f 00             	nopl   (%rax)
  400f58:	5d                   	pop    %rbp
  400f59:	c3                   	retq   
  400f5a:	66 0f 1f 44 00 00    	nopw   0x0(%rax,%rax,1)

0000000000400f60 <__do_global_dtors_aux>:
  400f60:	80 3d 81 35 20 00 00 	cmpb   $0x0,0x203581(%rip)        # 6044e8 <completed.7594>
  400f67:	75 11                	jne    400f7a <__do_global_dtors_aux+0x1a>
  400f69:	55                   	push   %rbp
  400f6a:	48 89 e5             	mov    %rsp,%rbp
  400f6d:	e8 6e ff ff ff       	callq  400ee0 <deregister_tm_clones>
  400f72:	5d                   	pop    %rbp
  400f73:	c6 05 6e 35 20 00 01 	movb   $0x1,0x20356e(%rip)        # 6044e8 <completed.7594>
  400f7a:	f3 c3                	repz retq 
  400f7c:	0f 1f 40 00          	nopl   0x0(%rax)

0000000000400f80 <frame_dummy>:
  400f80:	bf 20 3e 60 00       	mov    $0x603e20,%edi
  400f85:	48 83 3f 00          	cmpq   $0x0,(%rdi)
  400f89:	75 05                	jne    400f90 <frame_dummy+0x10>
  400f8b:	eb 93                	jmp    400f20 <register_tm_clones>
  400f8d:	0f 1f 00             	nopl   (%rax)
  400f90:	b8 00 00 00 00       	mov    $0x0,%eax
  400f95:	48 85 c0             	test   %rax,%rax
  400f98:	74 f1                	je     400f8b <frame_dummy+0xb>
  400f9a:	55                   	push   %rbp
  400f9b:	48 89 e5             	mov    %rsp,%rbp
  400f9e:	ff d0                	callq  *%rax
  400fa0:	5d                   	pop    %rbp
  400fa1:	e9 7a ff ff ff       	jmpq   400f20 <register_tm_clones>

0000000000400fa6 <usage>:
  400fa6:	48 83 ec 08          	sub    $0x8,%rsp
  400faa:	48 89 fa             	mov    %rdi,%rdx
  400fad:	83 3d 74 35 20 00 00 	cmpl   $0x0,0x203574(%rip)        # 604528 <is_checker>
  400fb4:	74 3e                	je     400ff4 <usage+0x4e>
  400fb6:	be 98 2e 40 00       	mov    $0x402e98,%esi
  400fbb:	bf 01 00 00 00       	mov    $0x1,%edi
  400fc0:	b8 00 00 00 00       	mov    $0x0,%eax
  400fc5:	e8 36 fe ff ff       	callq  400e00 <__printf_chk@plt>
  400fca:	bf d0 2e 40 00       	mov    $0x402ed0,%edi
  400fcf:	e8 fc fc ff ff       	callq  400cd0 <puts@plt>
  400fd4:	bf 08 30 40 00       	mov    $0x403008,%edi
  400fd9:	e8 f2 fc ff ff       	callq  400cd0 <puts@plt>
  400fde:	bf f8 2e 40 00       	mov    $0x402ef8,%edi
  400fe3:	e8 e8 fc ff ff       	callq  400cd0 <puts@plt>
  400fe8:	bf 22 30 40 00       	mov    $0x403022,%edi
  400fed:	e8 de fc ff ff       	callq  400cd0 <puts@plt>
  400ff2:	eb 32                	jmp    401026 <usage+0x80>
  400ff4:	be 3e 30 40 00       	mov    $0x40303e,%esi
  400ff9:	bf 01 00 00 00       	mov    $0x1,%edi
  400ffe:	b8 00 00 00 00       	mov    $0x0,%eax
  401003:	e8 f8 fd ff ff       	callq  400e00 <__printf_chk@plt>
  401008:	bf 20 2f 40 00       	mov    $0x402f20,%edi
  40100d:	e8 be fc ff ff       	callq  400cd0 <puts@plt>
  401012:	bf 48 2f 40 00       	mov    $0x402f48,%edi
  401017:	e8 b4 fc ff ff       	callq  400cd0 <puts@plt>
  40101c:	bf 5c 30 40 00       	mov    $0x40305c,%edi
  401021:	e8 aa fc ff ff       	callq  400cd0 <puts@plt>
  401026:	bf 00 00 00 00       	mov    $0x0,%edi
  40102b:	e8 20 fe ff ff       	callq  400e50 <exit@plt>

0000000000401030 <initialize_target>:
  401030:	55                   	push   %rbp
  401031:	53                   	push   %rbx
  401032:	48 81 ec 18 21 00 00 	sub    $0x2118,%rsp
  401039:	89 f5                	mov    %esi,%ebp
  40103b:	64 48 8b 04 25 28 00 	mov    %fs:0x28,%rax
  401042:	00 00 
  401044:	48 89 84 24 08 21 00 	mov    %rax,0x2108(%rsp)
  40104b:	00 
  40104c:	31 c0                	xor    %eax,%eax
  40104e:	89 3d c4 34 20 00    	mov    %edi,0x2034c4(%rip)        # 604518 <check_level>
  401054:	8b 3d 0e 31 20 00    	mov    0x20310e(%rip),%edi        # 604168 <target_id>
  40105a:	e8 8c 1d 00 00       	callq  402deb <gencookie>
  40105f:	89 05 bf 34 20 00    	mov    %eax,0x2034bf(%rip)        # 604524 <cookie>
  401065:	89 c7                	mov    %eax,%edi
  401067:	e8 7f 1d 00 00       	callq  402deb <gencookie>
  40106c:	89 05 ae 34 20 00    	mov    %eax,0x2034ae(%rip)        # 604520 <authkey>
  401072:	8b 05 f0 30 20 00    	mov    0x2030f0(%rip),%eax        # 604168 <target_id>
  401078:	8d 78 01             	lea    0x1(%rax),%edi
  40107b:	e8 20 fc ff ff       	callq  400ca0 <srandom@plt>
  401080:	e8 3b fd ff ff       	callq  400dc0 <random@plt>
  401085:	89 c7                	mov    %eax,%edi
  401087:	e8 d7 02 00 00       	callq  401363 <scramble>
  40108c:	89 c3                	mov    %eax,%ebx
  40108e:	85 ed                	test   %ebp,%ebp
  401090:	74 18                	je     4010aa <initialize_target+0x7a>
  401092:	bf 00 00 00 00       	mov    $0x0,%edi
  401097:	e8 14 fd ff ff       	callq  400db0 <time@plt>
  40109c:	89 c7                	mov    %eax,%edi
  40109e:	e8 fd fb ff ff       	callq  400ca0 <srandom@plt>
  4010a3:	e8 18 fd ff ff       	callq  400dc0 <random@plt>
  4010a8:	eb 05                	jmp    4010af <initialize_target+0x7f>
  4010aa:	b8 00 00 00 00       	mov    $0x0,%eax
  4010af:	01 c3                	add    %eax,%ebx
  4010b1:	0f b7 db             	movzwl %bx,%ebx
  4010b4:	8d 04 dd 00 01 00 00 	lea    0x100(,%rbx,8),%eax
  4010bb:	89 c0                	mov    %eax,%eax
  4010bd:	48 89 05 dc 33 20 00 	mov    %rax,0x2033dc(%rip)        # 6044a0 <buf_offset>
  4010c4:	c6 05 7d 40 20 00 63 	movb   $0x63,0x20407d(%rip)        # 605148 <target_prefix>
  4010cb:	83 3d d6 33 20 00 00 	cmpl   $0x0,0x2033d6(%rip)        # 6044a8 <notify>
  4010d2:	0f 84 8f 00 00 00    	je     401167 <initialize_target+0x137>
  4010d8:	83 3d 49 34 20 00 00 	cmpl   $0x0,0x203449(%rip)        # 604528 <is_checker>
  4010df:	0f 85 82 00 00 00    	jne    401167 <initialize_target+0x137>
  4010e5:	be 00 01 00 00       	mov    $0x100,%esi
  4010ea:	48 89 e7             	mov    %rsp,%rdi
  4010ed:	e8 4e fd ff ff       	callq  400e40 <gethostname@plt>
  4010f2:	85 c0                	test   %eax,%eax
  4010f4:	74 25                	je     40111b <initialize_target+0xeb>
  4010f6:	bf 78 2f 40 00       	mov    $0x402f78,%edi
  4010fb:	e8 d0 fb ff ff       	callq  400cd0 <puts@plt>
  401100:	bf 08 00 00 00       	mov    $0x8,%edi
  401105:	e8 46 fd ff ff       	callq  400e50 <exit@plt>
  40110a:	48 89 e6             	mov    %rsp,%rsi
  40110d:	e8 6e fb ff ff       	callq  400c80 <strcasecmp@plt>
  401112:	85 c0                	test   %eax,%eax
  401114:	74 1a                	je     401130 <initialize_target+0x100>
  401116:	83 c3 01             	add    $0x1,%ebx
  401119:	eb 05                	jmp    401120 <initialize_target+0xf0>
  40111b:	bb 00 00 00 00       	mov    $0x0,%ebx
  401120:	48 63 c3             	movslq %ebx,%rax
  401123:	48 8b 3c c5 80 41 60 	mov    0x604180(,%rax,8),%rdi
  40112a:	00 
  40112b:	48 85 ff             	test   %rdi,%rdi
  40112e:	75 da                	jne    40110a <initialize_target+0xda>
  401130:	48 8d bc 24 00 01 00 	lea    0x100(%rsp),%rdi
  401137:	00 
  401138:	e8 18 1a 00 00       	callq  402b55 <init_driver>
  40113d:	85 c0                	test   %eax,%eax
  40113f:	79 26                	jns    401167 <initialize_target+0x137>
  401141:	48 8d 94 24 00 01 00 	lea    0x100(%rsp),%rdx
  401148:	00 
  401149:	be b0 2f 40 00       	mov    $0x402fb0,%esi
  40114e:	bf 01 00 00 00       	mov    $0x1,%edi
  401153:	b8 00 00 00 00       	mov    $0x0,%eax
  401158:	e8 a3 fc ff ff       	callq  400e00 <__printf_chk@plt>
  40115d:	bf 08 00 00 00       	mov    $0x8,%edi
  401162:	e8 e9 fc ff ff       	callq  400e50 <exit@plt>
  401167:	48 8b 84 24 08 21 00 	mov    0x2108(%rsp),%rax
  40116e:	00 
  40116f:	64 48 33 04 25 28 00 	xor    %fs:0x28,%rax
  401176:	00 00 
  401178:	74 05                	je     40117f <initialize_target+0x14f>
  40117a:	e8 71 fb ff ff       	callq  400cf0 <__stack_chk_fail@plt>
  40117f:	48 81 c4 18 21 00 00 	add    $0x2118,%rsp
  401186:	5b                   	pop    %rbx
  401187:	5d                   	pop    %rbp
  401188:	c3                   	retq   

0000000000401189 <main>:
  401189:	41 56                	push   %r14
  40118b:	41 55                	push   %r13
  40118d:	41 54                	push   %r12
  40118f:	55                   	push   %rbp
  401190:	53                   	push   %rbx
  401191:	41 89 fc             	mov    %edi,%r12d
  401194:	48 89 f3             	mov    %rsi,%rbx
  401197:	be 90 1e 40 00       	mov    $0x401e90,%esi
  40119c:	bf 0b 00 00 00       	mov    $0xb,%edi
  4011a1:	e8 ba fb ff ff       	callq  400d60 <signal@plt>
  4011a6:	be 42 1e 40 00       	mov    $0x401e42,%esi
  4011ab:	bf 07 00 00 00       	mov    $0x7,%edi
  4011b0:	e8 ab fb ff ff       	callq  400d60 <signal@plt>
  4011b5:	be de 1e 40 00       	mov    $0x401ede,%esi
  4011ba:	bf 04 00 00 00       	mov    $0x4,%edi
  4011bf:	e8 9c fb ff ff       	callq  400d60 <signal@plt>
  4011c4:	83 3d 5d 33 20 00 00 	cmpl   $0x0,0x20335d(%rip)        # 604528 <is_checker>
  4011cb:	74 20                	je     4011ed <main+0x64>
  4011cd:	be 2c 1f 40 00       	mov    $0x401f2c,%esi
  4011d2:	bf 0e 00 00 00       	mov    $0xe,%edi
  4011d7:	e8 84 fb ff ff       	callq  400d60 <signal@plt>
  4011dc:	bf 05 00 00 00       	mov    $0x5,%edi
  4011e1:	e8 3a fb ff ff       	callq  400d20 <alarm@plt>
  4011e6:	bd 7a 30 40 00       	mov    $0x40307a,%ebp
  4011eb:	eb 05                	jmp    4011f2 <main+0x69>
  4011ed:	bd 75 30 40 00       	mov    $0x403075,%ebp
  4011f2:	48 8b 05 c7 32 20 00 	mov    0x2032c7(%rip),%rax        # 6044c0 <stdin@@GLIBC_2.2.5>
  4011f9:	48 89 05 10 33 20 00 	mov    %rax,0x203310(%rip)        # 604510 <infile>
  401200:	41 bd 00 00 00 00    	mov    $0x0,%r13d
  401206:	41 be 00 00 00 00    	mov    $0x0,%r14d
  40120c:	e9 c6 00 00 00       	jmpq   4012d7 <main+0x14e>
  401211:	83 e8 61             	sub    $0x61,%eax
  401214:	3c 10                	cmp    $0x10,%al
  401216:	0f 87 9c 00 00 00    	ja     4012b8 <main+0x12f>
  40121c:	0f b6 c0             	movzbl %al,%eax
  40121f:	ff 24 c5 c0 30 40 00 	jmpq   *0x4030c0(,%rax,8)
  401226:	48 8b 3b             	mov    (%rbx),%rdi
  401229:	e8 78 fd ff ff       	callq  400fa6 <usage>
  40122e:	be 2d 33 40 00       	mov    $0x40332d,%esi
  401233:	48 8b 3d 8e 32 20 00 	mov    0x20328e(%rip),%rdi        # 6044c8 <optarg@@GLIBC_2.2.5>
  40123a:	e8 d1 fb ff ff       	callq  400e10 <fopen@plt>
  40123f:	48 89 05 ca 32 20 00 	mov    %rax,0x2032ca(%rip)        # 604510 <infile>
  401246:	48 85 c0             	test   %rax,%rax
  401249:	0f 85 88 00 00 00    	jne    4012d7 <main+0x14e>
  40124f:	48 8b 0d 72 32 20 00 	mov    0x203272(%rip),%rcx        # 6044c8 <optarg@@GLIBC_2.2.5>
  401256:	ba 82 30 40 00       	mov    $0x403082,%edx
  40125b:	be 01 00 00 00       	mov    $0x1,%esi
  401260:	48 8b 3d 79 32 20 00 	mov    0x203279(%rip),%rdi        # 6044e0 <stderr@@GLIBC_2.2.5>
  401267:	e8 04 fc ff ff       	callq  400e70 <__fprintf_chk@plt>
  40126c:	b8 01 00 00 00       	mov    $0x1,%eax
  401271:	e9 e4 00 00 00       	jmpq   40135a <main+0x1d1>
  401276:	ba 10 00 00 00       	mov    $0x10,%edx
  40127b:	be 00 00 00 00       	mov    $0x0,%esi
  401280:	48 8b 3d 41 32 20 00 	mov    0x203241(%rip),%rdi        # 6044c8 <optarg@@GLIBC_2.2.5>
  401287:	e8 a4 fb ff ff       	callq  400e30 <strtoul@plt>
  40128c:	41 89 c6             	mov    %eax,%r14d
  40128f:	eb 46                	jmp    4012d7 <main+0x14e>
  401291:	ba 0a 00 00 00       	mov    $0xa,%edx
  401296:	be 00 00 00 00       	mov    $0x0,%esi
  40129b:	48 8b 3d 26 32 20 00 	mov    0x203226(%rip),%rdi        # 6044c8 <optarg@@GLIBC_2.2.5>
  4012a2:	e8 e9 fa ff ff       	callq  400d90 <strtol@plt>
  4012a7:	41 89 c5             	mov    %eax,%r13d
  4012aa:	eb 2b                	jmp    4012d7 <main+0x14e>
  4012ac:	c7 05 f2 31 20 00 00 	movl   $0x0,0x2031f2(%rip)        # 6044a8 <notify>
  4012b3:	00 00 00 
  4012b6:	eb 1f                	jmp    4012d7 <main+0x14e>
  4012b8:	0f be d2             	movsbl %dl,%edx
  4012bb:	be 9f 30 40 00       	mov    $0x40309f,%esi
  4012c0:	bf 01 00 00 00       	mov    $0x1,%edi
  4012c5:	b8 00 00 00 00       	mov    $0x0,%eax
  4012ca:	e8 31 fb ff ff       	callq  400e00 <__printf_chk@plt>
  4012cf:	48 8b 3b             	mov    (%rbx),%rdi
  4012d2:	e8 cf fc ff ff       	callq  400fa6 <usage>
  4012d7:	48 89 ea             	mov    %rbp,%rdx
  4012da:	48 89 de             	mov    %rbx,%rsi
  4012dd:	44 89 e7             	mov    %r12d,%edi
  4012e0:	e8 3b fb ff ff       	callq  400e20 <getopt@plt>
  4012e5:	89 c2                	mov    %eax,%edx
  4012e7:	3c ff                	cmp    $0xff,%al
  4012e9:	0f 85 22 ff ff ff    	jne    401211 <main+0x88>
  4012ef:	be 00 00 00 00       	mov    $0x0,%esi
  4012f4:	44 89 ef             	mov    %r13d,%edi
  4012f7:	e8 34 fd ff ff       	callq  401030 <initialize_target>
  4012fc:	83 3d 25 32 20 00 00 	cmpl   $0x0,0x203225(%rip)        # 604528 <is_checker>
  401303:	74 2a                	je     40132f <main+0x1a6>
  401305:	44 3b 35 14 32 20 00 	cmp    0x203214(%rip),%r14d        # 604520 <authkey>
  40130c:	74 21                	je     40132f <main+0x1a6>
  40130e:	44 89 f2             	mov    %r14d,%edx
  401311:	be d8 2f 40 00       	mov    $0x402fd8,%esi
  401316:	bf 01 00 00 00       	mov    $0x1,%edi
  40131b:	b8 00 00 00 00       	mov    $0x0,%eax
  401320:	e8 db fa ff ff       	callq  400e00 <__printf_chk@plt>
  401325:	b8 00 00 00 00       	mov    $0x0,%eax
  40132a:	e8 af 07 00 00       	callq  401ade <check_fail>
  40132f:	8b 15 ef 31 20 00    	mov    0x2031ef(%rip),%edx        # 604524 <cookie>
  401335:	be b2 30 40 00       	mov    $0x4030b2,%esi
  40133a:	bf 01 00 00 00       	mov    $0x1,%edi
  40133f:	b8 00 00 00 00       	mov    $0x0,%eax
  401344:	e8 b7 fa ff ff       	callq  400e00 <__printf_chk@plt>
  401349:	48 8b 3d 50 31 20 00 	mov    0x203150(%rip),%rdi        # 6044a0 <buf_offset>
  401350:	e8 d7 0c 00 00       	callq  40202c <stable_launch>
  401355:	b8 00 00 00 00       	mov    $0x0,%eax
  40135a:	5b                   	pop    %rbx
  40135b:	5d                   	pop    %rbp
  40135c:	41 5c                	pop    %r12
  40135e:	41 5d                	pop    %r13
  401360:	41 5e                	pop    %r14
  401362:	c3                   	retq   

0000000000401363 <scramble>:
  401363:	48 83 ec 38          	sub    $0x38,%rsp
  401367:	64 48 8b 04 25 28 00 	mov    %fs:0x28,%rax
  40136e:	00 00 
  401370:	48 89 44 24 28       	mov    %rax,0x28(%rsp)
  401375:	31 c0                	xor    %eax,%eax
  401377:	eb 10                	jmp    401389 <scramble+0x26>
  401379:	69 d0 93 4c 00 00    	imul   $0x4c93,%eax,%edx
  40137f:	01 fa                	add    %edi,%edx
  401381:	89 c1                	mov    %eax,%ecx
  401383:	89 14 8c             	mov    %edx,(%rsp,%rcx,4)
  401386:	83 c0 01             	add    $0x1,%eax
  401389:	83 f8 09             	cmp    $0x9,%eax
  40138c:	76 eb                	jbe    401379 <scramble+0x16>
  40138e:	8b 44 24 20          	mov    0x20(%rsp),%eax
  401392:	69 c0 d9 ae 00 00    	imul   $0xaed9,%eax,%eax
  401398:	89 44 24 20          	mov    %eax,0x20(%rsp)
  40139c:	8b 44 24 20          	mov    0x20(%rsp),%eax
  4013a0:	69 c0 1a 3a 00 00    	imul   $0x3a1a,%eax,%eax
  4013a6:	89 44 24 20          	mov    %eax,0x20(%rsp)
  4013aa:	8b 04 24             	mov    (%rsp),%eax
  4013ad:	69 c0 33 75 00 00    	imul   $0x7533,%eax,%eax
  4013b3:	89 04 24             	mov    %eax,(%rsp)
  4013b6:	8b 44 24 08          	mov    0x8(%rsp),%eax
  4013ba:	69 c0 e8 e3 00 00    	imul   $0xe3e8,%eax,%eax
  4013c0:	89 44 24 08          	mov    %eax,0x8(%rsp)
  4013c4:	8b 44 24 04          	mov    0x4(%rsp),%eax
  4013c8:	69 c0 33 82 00 00    	imul   $0x8233,%eax,%eax
  4013ce:	89 44 24 04          	mov    %eax,0x4(%rsp)
  4013d2:	8b 44 24 18          	mov    0x18(%rsp),%eax
  4013d6:	69 c0 a9 25 00 00    	imul   $0x25a9,%eax,%eax
  4013dc:	89 44 24 18          	mov    %eax,0x18(%rsp)
  4013e0:	8b 44 24 18          	mov    0x18(%rsp),%eax
  4013e4:	69 c0 e8 7e 00 00    	imul   $0x7ee8,%eax,%eax
  4013ea:	89 44 24 18          	mov    %eax,0x18(%rsp)
  4013ee:	8b 44 24 20          	mov    0x20(%rsp),%eax
  4013f2:	69 c0 89 9d 00 00    	imul   $0x9d89,%eax,%eax
  4013f8:	89 44 24 20          	mov    %eax,0x20(%rsp)
  4013fc:	8b 44 24 1c          	mov    0x1c(%rsp),%eax
  401400:	69 c0 e5 95 00 00    	imul   $0x95e5,%eax,%eax
  401406:	89 44 24 1c          	mov    %eax,0x1c(%rsp)
  40140a:	8b 44 24 20          	mov    0x20(%rsp),%eax
  40140e:	69 c0 d7 49 00 00    	imul   $0x49d7,%eax,%eax
  401414:	89 44 24 20          	mov    %eax,0x20(%rsp)
  401418:	8b 44 24 08          	mov    0x8(%rsp),%eax
  40141c:	69 c0 c6 61 00 00    	imul   $0x61c6,%eax,%eax
  401422:	89 44 24 08          	mov    %eax,0x8(%rsp)
  401426:	8b 44 24 24          	mov    0x24(%rsp),%eax
  40142a:	69 c0 7c 72 00 00    	imul   $0x727c,%eax,%eax
  401430:	89 44 24 24          	mov    %eax,0x24(%rsp)
  401434:	8b 44 24 14          	mov    0x14(%rsp),%eax
  401438:	69 c0 ab ed 00 00    	imul   $0xedab,%eax,%eax
  40143e:	89 44 24 14          	mov    %eax,0x14(%rsp)
  401442:	8b 04 24             	mov    (%rsp),%eax
  401445:	69 c0 43 ed 00 00    	imul   $0xed43,%eax,%eax
  40144b:	89 04 24             	mov    %eax,(%rsp)
  40144e:	8b 44 24 14          	mov    0x14(%rsp),%eax
  401452:	69 c0 2e f8 00 00    	imul   $0xf82e,%eax,%eax
  401458:	89 44 24 14          	mov    %eax,0x14(%rsp)
  40145c:	8b 44 24 0c          	mov    0xc(%rsp),%eax
  401460:	69 c0 e5 fe 00 00    	imul   $0xfee5,%eax,%eax
  401466:	89 44 24 0c          	mov    %eax,0xc(%rsp)
  40146a:	8b 04 24             	mov    (%rsp),%eax
  40146d:	69 c0 71 b7 00 00    	imul   $0xb771,%eax,%eax
  401473:	89 04 24             	mov    %eax,(%rsp)
  401476:	8b 04 24             	mov    (%rsp),%eax
  401479:	69 c0 ca a7 00 00    	imul   $0xa7ca,%eax,%eax
  40147f:	89 04 24             	mov    %eax,(%rsp)
  401482:	8b 44 24 18          	mov    0x18(%rsp),%eax
  401486:	69 c0 aa 5a 00 00    	imul   $0x5aaa,%eax,%eax
  40148c:	89 44 24 18          	mov    %eax,0x18(%rsp)
  401490:	8b 44 24 0c          	mov    0xc(%rsp),%eax
  401494:	69 c0 38 41 00 00    	imul   $0x4138,%eax,%eax
  40149a:	89 44 24 0c          	mov    %eax,0xc(%rsp)
  40149e:	8b 44 24 04          	mov    0x4(%rsp),%eax
  4014a2:	69 c0 23 9f 00 00    	imul   $0x9f23,%eax,%eax
  4014a8:	89 44 24 04          	mov    %eax,0x4(%rsp)
  4014ac:	8b 44 24 04          	mov    0x4(%rsp),%eax
  4014b0:	69 c0 9d 76 00 00    	imul   $0x769d,%eax,%eax
  4014b6:	89 44 24 04          	mov    %eax,0x4(%rsp)
  4014ba:	8b 44 24 04          	mov    0x4(%rsp),%eax
  4014be:	69 c0 de f9 00 00    	imul   $0xf9de,%eax,%eax
  4014c4:	89 44 24 04          	mov    %eax,0x4(%rsp)
  4014c8:	8b 44 24 04          	mov    0x4(%rsp),%eax
  4014cc:	69 c0 e8 83 00 00    	imul   $0x83e8,%eax,%eax
  4014d2:	89 44 24 04          	mov    %eax,0x4(%rsp)
  4014d6:	8b 44 24 1c          	mov    0x1c(%rsp),%eax
  4014da:	69 c0 4e 3b 00 00    	imul   $0x3b4e,%eax,%eax
  4014e0:	89 44 24 1c          	mov    %eax,0x1c(%rsp)
  4014e4:	8b 04 24             	mov    (%rsp),%eax
  4014e7:	69 c0 83 21 00 00    	imul   $0x2183,%eax,%eax
  4014ed:	89 04 24             	mov    %eax,(%rsp)
  4014f0:	8b 44 24 08          	mov    0x8(%rsp),%eax
  4014f4:	69 c0 45 92 00 00    	imul   $0x9245,%eax,%eax
  4014fa:	89 44 24 08          	mov    %eax,0x8(%rsp)
  4014fe:	8b 44 24 08          	mov    0x8(%rsp),%eax
  401502:	69 c0 45 cf 00 00    	imul   $0xcf45,%eax,%eax
  401508:	89 44 24 08          	mov    %eax,0x8(%rsp)
  40150c:	8b 44 24 18          	mov    0x18(%rsp),%eax
  401510:	69 c0 25 1f 00 00    	imul   $0x1f25,%eax,%eax
  401516:	89 44 24 18          	mov    %eax,0x18(%rsp)
  40151a:	8b 44 24 1c          	mov    0x1c(%rsp),%eax
  40151e:	69 c0 43 32 00 00    	imul   $0x3243,%eax,%eax
  401524:	89 44 24 1c          	mov    %eax,0x1c(%rsp)
  401528:	8b 44 24 08          	mov    0x8(%rsp),%eax
  40152c:	69 c0 2f 90 00 00    	imul   $0x902f,%eax,%eax
  401532:	89 44 24 08          	mov    %eax,0x8(%rsp)
  401536:	8b 44 24 20          	mov    0x20(%rsp),%eax
  40153a:	69 c0 5b be 00 00    	imul   $0xbe5b,%eax,%eax
  401540:	89 44 24 20          	mov    %eax,0x20(%rsp)
  401544:	8b 44 24 14          	mov    0x14(%rsp),%eax
  401548:	69 c0 28 6a 00 00    	imul   $0x6a28,%eax,%eax
  40154e:	89 44 24 14          	mov    %eax,0x14(%rsp)
  401552:	8b 44 24 10          	mov    0x10(%rsp),%eax
  401556:	69 c0 45 74 00 00    	imul   $0x7445,%eax,%eax
  40155c:	89 44 24 10          	mov    %eax,0x10(%rsp)
  401560:	8b 44 24 14          	mov    0x14(%rsp),%eax
  401564:	69 c0 d7 f1 00 00    	imul   $0xf1d7,%eax,%eax
  40156a:	89 44 24 14          	mov    %eax,0x14(%rsp)
  40156e:	8b 04 24             	mov    (%rsp),%eax
  401571:	69 c0 af a1 00 00    	imul   $0xa1af,%eax,%eax
  401577:	89 04 24             	mov    %eax,(%rsp)
  40157a:	8b 44 24 04          	mov    0x4(%rsp),%eax
  40157e:	69 c0 5f 1c 00 00    	imul   $0x1c5f,%eax,%eax
  401584:	89 44 24 04          	mov    %eax,0x4(%rsp)
  401588:	8b 44 24 1c          	mov    0x1c(%rsp),%eax
  40158c:	69 c0 06 af 00 00    	imul   $0xaf06,%eax,%eax
  401592:	89 44 24 1c          	mov    %eax,0x1c(%rsp)
  401596:	8b 44 24 10          	mov    0x10(%rsp),%eax
  40159a:	69 c0 74 2c 00 00    	imul   $0x2c74,%eax,%eax
  4015a0:	89 44 24 10          	mov    %eax,0x10(%rsp)
  4015a4:	8b 44 24 10          	mov    0x10(%rsp),%eax
  4015a8:	69 c0 00 a6 00 00    	imul   $0xa600,%eax,%eax
  4015ae:	89 44 24 10          	mov    %eax,0x10(%rsp)
  4015b2:	8b 44 24 08          	mov    0x8(%rsp),%eax
  4015b6:	69 c0 ad 00 00 00    	imul   $0xad,%eax,%eax
  4015bc:	89 44 24 08          	mov    %eax,0x8(%rsp)
  4015c0:	8b 44 24 10          	mov    0x10(%rsp),%eax
  4015c4:	69 c0 d7 04 00 00    	imul   $0x4d7,%eax,%eax
  4015ca:	89 44 24 10          	mov    %eax,0x10(%rsp)
  4015ce:	8b 44 24 20          	mov    0x20(%rsp),%eax
  4015d2:	69 c0 84 5b 00 00    	imul   $0x5b84,%eax,%eax
  4015d8:	89 44 24 20          	mov    %eax,0x20(%rsp)
  4015dc:	8b 44 24 1c          	mov    0x1c(%rsp),%eax
  4015e0:	69 c0 e2 12 00 00    	imul   $0x12e2,%eax,%eax
  4015e6:	89 44 24 1c          	mov    %eax,0x1c(%rsp)
  4015ea:	8b 44 24 04          	mov    0x4(%rsp),%eax
  4015ee:	69 c0 a5 90 00 00    	imul   $0x90a5,%eax,%eax
  4015f4:	89 44 24 04          	mov    %eax,0x4(%rsp)
  4015f8:	8b 04 24             	mov    (%rsp),%eax
  4015fb:	69 c0 fc 91 00 00    	imul   $0x91fc,%eax,%eax
  401601:	89 04 24             	mov    %eax,(%rsp)
  401604:	8b 44 24 14          	mov    0x14(%rsp),%eax
  401608:	69 c0 4e 76 00 00    	imul   $0x764e,%eax,%eax
  40160e:	89 44 24 14          	mov    %eax,0x14(%rsp)
  401612:	8b 44 24 20          	mov    0x20(%rsp),%eax
  401616:	69 c0 75 68 00 00    	imul   $0x6875,%eax,%eax
  40161c:	89 44 24 20          	mov    %eax,0x20(%rsp)
  401620:	8b 44 24 08          	mov    0x8(%rsp),%eax
  401624:	69 c0 7c b6 00 00    	imul   $0xb67c,%eax,%eax
  40162a:	89 44 24 08          	mov    %eax,0x8(%rsp)
  40162e:	8b 44 24 0c          	mov    0xc(%rsp),%eax
  401632:	69 c0 49 a5 00 00    	imul   $0xa549,%eax,%eax
  401638:	89 44 24 0c          	mov    %eax,0xc(%rsp)
  40163c:	8b 44 24 10          	mov    0x10(%rsp),%eax
  401640:	69 c0 37 92 00 00    	imul   $0x9237,%eax,%eax
  401646:	89 44 24 10          	mov    %eax,0x10(%rsp)
  40164a:	8b 44 24 20          	mov    0x20(%rsp),%eax
  40164e:	69 c0 4e 39 00 00    	imul   $0x394e,%eax,%eax
  401654:	89 44 24 20          	mov    %eax,0x20(%rsp)
  401658:	8b 44 24 20          	mov    0x20(%rsp),%eax
  40165c:	69 c0 45 5f 00 00    	imul   $0x5f45,%eax,%eax
  401662:	89 44 24 20          	mov    %eax,0x20(%rsp)
  401666:	8b 44 24 04          	mov    0x4(%rsp),%eax
  40166a:	69 c0 d3 c4 00 00    	imul   $0xc4d3,%eax,%eax
  401670:	89 44 24 04          	mov    %eax,0x4(%rsp)
  401674:	8b 04 24             	mov    (%rsp),%eax
  401677:	69 c0 42 1b 00 00    	imul   $0x1b42,%eax,%eax
  40167d:	89 04 24             	mov    %eax,(%rsp)
  401680:	8b 44 24 1c          	mov    0x1c(%rsp),%eax
  401684:	69 c0 7c f3 00 00    	imul   $0xf37c,%eax,%eax
  40168a:	89 44 24 1c          	mov    %eax,0x1c(%rsp)
  40168e:	8b 44 24 14          	mov    0x14(%rsp),%eax
  401692:	69 c0 58 32 00 00    	imul   $0x3258,%eax,%eax
  401698:	89 44 24 14          	mov    %eax,0x14(%rsp)
  40169c:	8b 04 24             	mov    (%rsp),%eax
  40169f:	69 c0 e1 ae 00 00    	imul   $0xaee1,%eax,%eax
  4016a5:	89 04 24             	mov    %eax,(%rsp)
  4016a8:	8b 44 24 04          	mov    0x4(%rsp),%eax
  4016ac:	69 c0 6f cc 00 00    	imul   $0xcc6f,%eax,%eax
  4016b2:	89 44 24 04          	mov    %eax,0x4(%rsp)
  4016b6:	8b 04 24             	mov    (%rsp),%eax
  4016b9:	69 c0 85 08 00 00    	imul   $0x885,%eax,%eax
  4016bf:	89 04 24             	mov    %eax,(%rsp)
  4016c2:	8b 44 24 0c          	mov    0xc(%rsp),%eax
  4016c6:	69 c0 e9 06 00 00    	imul   $0x6e9,%eax,%eax
  4016cc:	89 44 24 0c          	mov    %eax,0xc(%rsp)
  4016d0:	8b 44 24 04          	mov    0x4(%rsp),%eax
  4016d4:	69 c0 e9 7d 00 00    	imul   $0x7de9,%eax,%eax
  4016da:	89 44 24 04          	mov    %eax,0x4(%rsp)
  4016de:	8b 44 24 18          	mov    0x18(%rsp),%eax
  4016e2:	69 c0 d9 ea 00 00    	imul   $0xead9,%eax,%eax
  4016e8:	89 44 24 18          	mov    %eax,0x18(%rsp)
  4016ec:	8b 44 24 04          	mov    0x4(%rsp),%eax
  4016f0:	69 c0 ad 5d 00 00    	imul   $0x5dad,%eax,%eax
  4016f6:	89 44 24 04          	mov    %eax,0x4(%rsp)
  4016fa:	8b 44 24 18          	mov    0x18(%rsp),%eax
  4016fe:	69 c0 18 c3 00 00    	imul   $0xc318,%eax,%eax
  401704:	89 44 24 18          	mov    %eax,0x18(%rsp)
  401708:	8b 44 24 24          	mov    0x24(%rsp),%eax
  40170c:	69 c0 a9 49 00 00    	imul   $0x49a9,%eax,%eax
  401712:	89 44 24 24          	mov    %eax,0x24(%rsp)
  401716:	8b 44 24 0c          	mov    0xc(%rsp),%eax
  40171a:	69 c0 ef 49 00 00    	imul   $0x49ef,%eax,%eax
  401720:	89 44 24 0c          	mov    %eax,0xc(%rsp)
  401724:	8b 44 24 20          	mov    0x20(%rsp),%eax
  401728:	69 c0 e6 03 00 00    	imul   $0x3e6,%eax,%eax
  40172e:	89 44 24 20          	mov    %eax,0x20(%rsp)
  401732:	8b 44 24 1c          	mov    0x1c(%rsp),%eax
  401736:	69 c0 4b 6b 00 00    	imul   $0x6b4b,%eax,%eax
  40173c:	89 44 24 1c          	mov    %eax,0x1c(%rsp)
  401740:	8b 44 24 1c          	mov    0x1c(%rsp),%eax
  401744:	69 c0 ee 34 00 00    	imul   $0x34ee,%eax,%eax
  40174a:	89 44 24 1c          	mov    %eax,0x1c(%rsp)
  40174e:	8b 04 24             	mov    (%rsp),%eax
  401751:	69 c0 8d 33 00 00    	imul   $0x338d,%eax,%eax
  401757:	89 04 24             	mov    %eax,(%rsp)
  40175a:	8b 44 24 04          	mov    0x4(%rsp),%eax
  40175e:	69 c0 7c a2 00 00    	imul   $0xa27c,%eax,%eax
  401764:	89 44 24 04          	mov    %eax,0x4(%rsp)
  401768:	8b 44 24 24          	mov    0x24(%rsp),%eax
  40176c:	69 c0 bd 20 00 00    	imul   $0x20bd,%eax,%eax
  401772:	89 44 24 24          	mov    %eax,0x24(%rsp)
  401776:	8b 04 24             	mov    (%rsp),%eax
  401779:	69 c0 c1 f3 00 00    	imul   $0xf3c1,%eax,%eax
  40177f:	89 04 24             	mov    %eax,(%rsp)
  401782:	8b 44 24 08          	mov    0x8(%rsp),%eax
  401786:	69 c0 20 13 00 00    	imul   $0x1320,%eax,%eax
  40178c:	89 44 24 08          	mov    %eax,0x8(%rsp)
  401790:	8b 44 24 1c          	mov    0x1c(%rsp),%eax
  401794:	69 c0 41 4a 00 00    	imul   $0x4a41,%eax,%eax
  40179a:	89 44 24 1c          	mov    %eax,0x1c(%rsp)
  40179e:	8b 44 24 20          	mov    0x20(%rsp),%eax
  4017a2:	69 c0 c8 96 00 00    	imul   $0x96c8,%eax,%eax
  4017a8:	89 44 24 20          	mov    %eax,0x20(%rsp)
  4017ac:	8b 44 24 1c          	mov    0x1c(%rsp),%eax
  4017b0:	69 c0 40 97 00 00    	imul   $0x9740,%eax,%eax
  4017b6:	89 44 24 1c          	mov    %eax,0x1c(%rsp)
  4017ba:	8b 44 24 10          	mov    0x10(%rsp),%eax
  4017be:	69 c0 88 ae 00 00    	imul   $0xae88,%eax,%eax
  4017c4:	89 44 24 10          	mov    %eax,0x10(%rsp)
  4017c8:	8b 44 24 10          	mov    0x10(%rsp),%eax
  4017cc:	69 c0 f6 22 00 00    	imul   $0x22f6,%eax,%eax
  4017d2:	89 44 24 10          	mov    %eax,0x10(%rsp)
  4017d6:	8b 44 24 1c          	mov    0x1c(%rsp),%eax
  4017da:	69 c0 e4 f7 00 00    	imul   $0xf7e4,%eax,%eax
  4017e0:	89 44 24 1c          	mov    %eax,0x1c(%rsp)
  4017e4:	8b 44 24 0c          	mov    0xc(%rsp),%eax
  4017e8:	69 c0 ef c6 00 00    	imul   $0xc6ef,%eax,%eax
  4017ee:	89 44 24 0c          	mov    %eax,0xc(%rsp)
  4017f2:	8b 44 24 14          	mov    0x14(%rsp),%eax
  4017f6:	69 c0 96 ef 00 00    	imul   $0xef96,%eax,%eax
  4017fc:	89 44 24 14          	mov    %eax,0x14(%rsp)
  401800:	8b 44 24 14          	mov    0x14(%rsp),%eax
  401804:	69 c0 08 eb 00 00    	imul   $0xeb08,%eax,%eax
  40180a:	89 44 24 14          	mov    %eax,0x14(%rsp)
  40180e:	8b 44 24 20          	mov    0x20(%rsp),%eax
  401812:	69 c0 8f 93 00 00    	imul   $0x938f,%eax,%eax
  401818:	89 44 24 20          	mov    %eax,0x20(%rsp)
  40181c:	8b 44 24 08          	mov    0x8(%rsp),%eax
  401820:	69 c0 6e e1 00 00    	imul   $0xe16e,%eax,%eax
  401826:	89 44 24 08          	mov    %eax,0x8(%rsp)
  40182a:	8b 44 24 20          	mov    0x20(%rsp),%eax
  40182e:	69 c0 60 48 00 00    	imul   $0x4860,%eax,%eax
  401834:	89 44 24 20          	mov    %eax,0x20(%rsp)
  401838:	8b 44 24 1c          	mov    0x1c(%rsp),%eax
  40183c:	69 c0 02 2d 00 00    	imul   $0x2d02,%eax,%eax
  401842:	89 44 24 1c          	mov    %eax,0x1c(%rsp)
  401846:	8b 44 24 24          	mov    0x24(%rsp),%eax
  40184a:	69 c0 47 d5 00 00    	imul   $0xd547,%eax,%eax
  401850:	89 44 24 24          	mov    %eax,0x24(%rsp)
  401854:	ba 00 00 00 00       	mov    $0x0,%edx
  401859:	b8 00 00 00 00       	mov    $0x0,%eax
  40185e:	eb 0a                	jmp    40186a <scramble+0x507>
  401860:	89 d1                	mov    %edx,%ecx
  401862:	8b 0c 8c             	mov    (%rsp,%rcx,4),%ecx
  401865:	01 c8                	add    %ecx,%eax
  401867:	83 c2 01             	add    $0x1,%edx
  40186a:	83 fa 09             	cmp    $0x9,%edx
  40186d:	76 f1                	jbe    401860 <scramble+0x4fd>
  40186f:	48 8b 74 24 28       	mov    0x28(%rsp),%rsi
  401874:	64 48 33 34 25 28 00 	xor    %fs:0x28,%rsi
  40187b:	00 00 
  40187d:	74 05                	je     401884 <scramble+0x521>
  40187f:	e8 6c f4 ff ff       	callq  400cf0 <__stack_chk_fail@plt>
  401884:	48 83 c4 38          	add    $0x38,%rsp
  401888:	c3                   	retq   

0000000000401889 <getbuf>:
  401889:	48 83 ec 18          	sub    $0x18,%rsp
  40188d:	48 89 e7             	mov    %rsp,%rdi
  401890:	e8 7e 02 00 00       	callq  401b13 <Gets>
  401895:	b8 01 00 00 00       	mov    $0x1,%eax
  40189a:	48 83 c4 18          	add    $0x18,%rsp
  40189e:	c3                   	retq   

000000000040189f <touch1>:
  40189f:	48 83 ec 08          	sub    $0x8,%rsp
  4018a3:	c7 05 6f 2c 20 00 01 	movl   $0x1,0x202c6f(%rip)        # 60451c <vlevel>
  4018aa:	00 00 00 
  4018ad:	bf 86 31 40 00       	mov    $0x403186,%edi
  4018b2:	e8 19 f4 ff ff       	callq  400cd0 <puts@plt>
  4018b7:	bf 01 00 00 00       	mov    $0x1,%edi
  4018bc:	e8 97 04 00 00       	callq  401d58 <validate>
  4018c1:	bf 00 00 00 00       	mov    $0x0,%edi
  4018c6:	e8 85 f5 ff ff       	callq  400e50 <exit@plt>

00000000004018cb <touch2>:
  4018cb:	48 83 ec 08          	sub    $0x8,%rsp
  4018cf:	89 fa                	mov    %edi,%edx
  4018d1:	c7 05 41 2c 20 00 02 	movl   $0x2,0x202c41(%rip)        # 60451c <vlevel>
  4018d8:	00 00 00 
  4018db:	39 3d 43 2c 20 00    	cmp    %edi,0x202c43(%rip)        # 604524 <cookie>
  4018e1:	75 20                	jne    401903 <touch2+0x38>
  4018e3:	be a8 31 40 00       	mov    $0x4031a8,%esi
  4018e8:	bf 01 00 00 00       	mov    $0x1,%edi
  4018ed:	b8 00 00 00 00       	mov    $0x0,%eax
  4018f2:	e8 09 f5 ff ff       	callq  400e00 <__printf_chk@plt>
  4018f7:	bf 02 00 00 00       	mov    $0x2,%edi
  4018fc:	e8 57 04 00 00       	callq  401d58 <validate>
  401901:	eb 1e                	jmp    401921 <touch2+0x56>
  401903:	be d0 31 40 00       	mov    $0x4031d0,%esi
  401908:	bf 01 00 00 00       	mov    $0x1,%edi
  40190d:	b8 00 00 00 00       	mov    $0x0,%eax
  401912:	e8 e9 f4 ff ff       	callq  400e00 <__printf_chk@plt>
  401917:	bf 02 00 00 00       	mov    $0x2,%edi
  40191c:	e8 f9 04 00 00       	callq  401e1a <fail>
  401921:	bf 00 00 00 00       	mov    $0x0,%edi
  401926:	e8 25 f5 ff ff       	callq  400e50 <exit@plt>

000000000040192b <hexmatch>:
  40192b:	41 54                	push   %r12
  40192d:	55                   	push   %rbp
  40192e:	53                   	push   %rbx
  40192f:	48 83 c4 80          	add    $0xffffffffffffff80,%rsp
  401933:	89 fd                	mov    %edi,%ebp
  401935:	48 89 f3             	mov    %rsi,%rbx
  401938:	64 48 8b 04 25 28 00 	mov    %fs:0x28,%rax
  40193f:	00 00 
  401941:	48 89 44 24 78       	mov    %rax,0x78(%rsp)
  401946:	31 c0                	xor    %eax,%eax
  401948:	e8 73 f4 ff ff       	callq  400dc0 <random@plt>
  40194d:	48 89 c1             	mov    %rax,%rcx
  401950:	48 ba 0b d7 a3 70 3d 	movabs $0xa3d70a3d70a3d70b,%rdx
  401957:	0a d7 a3 
  40195a:	48 f7 ea             	imul   %rdx
  40195d:	48 01 ca             	add    %rcx,%rdx
  401960:	48 c1 fa 06          	sar    $0x6,%rdx
  401964:	48 89 c8             	mov    %rcx,%rax
  401967:	48 c1 f8 3f          	sar    $0x3f,%rax
  40196b:	48 29 c2             	sub    %rax,%rdx
  40196e:	48 8d 04 92          	lea    (%rdx,%rdx,4),%rax
  401972:	48 8d 14 80          	lea    (%rax,%rax,4),%rdx
  401976:	48 8d 04 95 00 00 00 	lea    0x0(,%rdx,4),%rax
  40197d:	00 
  40197e:	48 29 c1             	sub    %rax,%rcx
  401981:	4c 8d 24 0c          	lea    (%rsp,%rcx,1),%r12
  401985:	41 89 e8             	mov    %ebp,%r8d
  401988:	b9 a3 31 40 00       	mov    $0x4031a3,%ecx
  40198d:	48 c7 c2 ff ff ff ff 	mov    $0xffffffffffffffff,%rdx
  401994:	be 01 00 00 00       	mov    $0x1,%esi
  401999:	4c 89 e7             	mov    %r12,%rdi
  40199c:	b8 00 00 00 00       	mov    $0x0,%eax
  4019a1:	e8 da f4 ff ff       	callq  400e80 <__sprintf_chk@plt>
  4019a6:	ba 09 00 00 00       	mov    $0x9,%edx
  4019ab:	4c 89 e6             	mov    %r12,%rsi
  4019ae:	48 89 df             	mov    %rbx,%rdi
  4019b1:	e8 fa f2 ff ff       	callq  400cb0 <strncmp@plt>
  4019b6:	85 c0                	test   %eax,%eax
  4019b8:	0f 94 c0             	sete   %al
  4019bb:	48 8b 5c 24 78       	mov    0x78(%rsp),%rbx
  4019c0:	64 48 33 1c 25 28 00 	xor    %fs:0x28,%rbx
  4019c7:	00 00 
  4019c9:	74 05                	je     4019d0 <hexmatch+0xa5>
  4019cb:	e8 20 f3 ff ff       	callq  400cf0 <__stack_chk_fail@plt>
  4019d0:	0f b6 c0             	movzbl %al,%eax
  4019d3:	48 83 ec 80          	sub    $0xffffffffffffff80,%rsp
  4019d7:	5b                   	pop    %rbx
  4019d8:	5d                   	pop    %rbp
  4019d9:	41 5c                	pop    %r12
  4019db:	c3                   	retq   

00000000004019dc <touch3>:
  4019dc:	53                   	push   %rbx
  4019dd:	48 89 fb             	mov    %rdi,%rbx
  4019e0:	c7 05 32 2b 20 00 03 	movl   $0x3,0x202b32(%rip)        # 60451c <vlevel>
  4019e7:	00 00 00 
  4019ea:	48 89 fe             	mov    %rdi,%rsi
  4019ed:	8b 3d 31 2b 20 00    	mov    0x202b31(%rip),%edi        # 604524 <cookie>
  4019f3:	e8 33 ff ff ff       	callq  40192b <hexmatch>
  4019f8:	85 c0                	test   %eax,%eax
  4019fa:	74 23                	je     401a1f <touch3+0x43>
  4019fc:	48 89 da             	mov    %rbx,%rdx
  4019ff:	be f8 31 40 00       	mov    $0x4031f8,%esi
  401a04:	bf 01 00 00 00       	mov    $0x1,%edi
  401a09:	b8 00 00 00 00       	mov    $0x0,%eax
  401a0e:	e8 ed f3 ff ff       	callq  400e00 <__printf_chk@plt>
  401a13:	bf 03 00 00 00       	mov    $0x3,%edi
  401a18:	e8 3b 03 00 00       	callq  401d58 <validate>
  401a1d:	eb 21                	jmp    401a40 <touch3+0x64>
  401a1f:	48 89 da             	mov    %rbx,%rdx
  401a22:	be 20 32 40 00       	mov    $0x403220,%esi
  401a27:	bf 01 00 00 00       	mov    $0x1,%edi
  401a2c:	b8 00 00 00 00       	mov    $0x0,%eax
  401a31:	e8 ca f3 ff ff       	callq  400e00 <__printf_chk@plt>
  401a36:	bf 03 00 00 00       	mov    $0x3,%edi
  401a3b:	e8 da 03 00 00       	callq  401e1a <fail>
  401a40:	bf 00 00 00 00       	mov    $0x0,%edi
  401a45:	e8 06 f4 ff ff       	callq  400e50 <exit@plt>

0000000000401a4a <test>:
  401a4a:	48 83 ec 08          	sub    $0x8,%rsp
  401a4e:	b8 00 00 00 00       	mov    $0x0,%eax
  401a53:	e8 31 fe ff ff       	callq  401889 <getbuf>
  401a58:	89 c2                	mov    %eax,%edx
  401a5a:	be 48 32 40 00       	mov    $0x403248,%esi
  401a5f:	bf 01 00 00 00       	mov    $0x1,%edi
  401a64:	b8 00 00 00 00       	mov    $0x0,%eax
  401a69:	e8 92 f3 ff ff       	callq  400e00 <__printf_chk@plt>
  401a6e:	48 83 c4 08          	add    $0x8,%rsp
  401a72:	c3                   	retq   

0000000000401a73 <save_char>:
  401a73:	8b 05 cb 36 20 00    	mov    0x2036cb(%rip),%eax        # 605144 <gets_cnt>
  401a79:	3d ff 03 00 00       	cmp    $0x3ff,%eax
  401a7e:	7f 49                	jg     401ac9 <save_char+0x56>
  401a80:	8d 14 40             	lea    (%rax,%rax,2),%edx
  401a83:	89 f9                	mov    %edi,%ecx
  401a85:	c0 e9 04             	shr    $0x4,%cl
  401a88:	83 e1 0f             	and    $0xf,%ecx
  401a8b:	0f b6 b1 70 35 40 00 	movzbl 0x403570(%rcx),%esi
  401a92:	48 63 ca             	movslq %edx,%rcx
  401a95:	40 88 b1 40 45 60 00 	mov    %sil,0x604540(%rcx)
  401a9c:	8d 4a 01             	lea    0x1(%rdx),%ecx
  401a9f:	83 e7 0f             	and    $0xf,%edi
  401aa2:	0f b6 b7 70 35 40 00 	movzbl 0x403570(%rdi),%esi
  401aa9:	48 63 c9             	movslq %ecx,%rcx
  401aac:	40 88 b1 40 45 60 00 	mov    %sil,0x604540(%rcx)
  401ab3:	83 c2 02             	add    $0x2,%edx
  401ab6:	48 63 d2             	movslq %edx,%rdx
  401ab9:	c6 82 40 45 60 00 20 	movb   $0x20,0x604540(%rdx)
  401ac0:	83 c0 01             	add    $0x1,%eax
  401ac3:	89 05 7b 36 20 00    	mov    %eax,0x20367b(%rip)        # 605144 <gets_cnt>
  401ac9:	f3 c3                	repz retq 

0000000000401acb <save_term>:
  401acb:	8b 05 73 36 20 00    	mov    0x203673(%rip),%eax        # 605144 <gets_cnt>
  401ad1:	8d 04 40             	lea    (%rax,%rax,2),%eax
  401ad4:	48 98                	cltq   
  401ad6:	c6 80 40 45 60 00 00 	movb   $0x0,0x604540(%rax)
  401add:	c3                   	retq   

0000000000401ade <check_fail>:
  401ade:	48 83 ec 08          	sub    $0x8,%rsp
  401ae2:	0f be 15 5f 36 20 00 	movsbl 0x20365f(%rip),%edx        # 605148 <target_prefix>
  401ae9:	41 b8 40 45 60 00    	mov    $0x604540,%r8d
  401aef:	8b 0d 23 2a 20 00    	mov    0x202a23(%rip),%ecx        # 604518 <check_level>
  401af5:	be 6b 32 40 00       	mov    $0x40326b,%esi
  401afa:	bf 01 00 00 00       	mov    $0x1,%edi
  401aff:	b8 00 00 00 00       	mov    $0x0,%eax
  401b04:	e8 f7 f2 ff ff       	callq  400e00 <__printf_chk@plt>
  401b09:	bf 01 00 00 00       	mov    $0x1,%edi
  401b0e:	e8 3d f3 ff ff       	callq  400e50 <exit@plt>

0000000000401b13 <Gets>:
  401b13:	41 54                	push   %r12
  401b15:	55                   	push   %rbp
  401b16:	53                   	push   %rbx
  401b17:	49 89 fc             	mov    %rdi,%r12
  401b1a:	c7 05 20 36 20 00 00 	movl   $0x0,0x203620(%rip)        # 605144 <gets_cnt>
  401b21:	00 00 00 
  401b24:	48 89 fb             	mov    %rdi,%rbx
  401b27:	eb 11                	jmp    401b3a <Gets+0x27>
  401b29:	48 8d 6b 01          	lea    0x1(%rbx),%rbp
  401b2d:	88 03                	mov    %al,(%rbx)
  401b2f:	0f b6 f8             	movzbl %al,%edi
  401b32:	e8 3c ff ff ff       	callq  401a73 <save_char>
  401b37:	48 89 eb             	mov    %rbp,%rbx
  401b3a:	48 8b 3d cf 29 20 00 	mov    0x2029cf(%rip),%rdi        # 604510 <infile>
  401b41:	e8 8a f2 ff ff       	callq  400dd0 <_IO_getc@plt>
  401b46:	83 f8 ff             	cmp    $0xffffffff,%eax
  401b49:	74 05                	je     401b50 <Gets+0x3d>
  401b4b:	83 f8 0a             	cmp    $0xa,%eax
  401b4e:	75 d9                	jne    401b29 <Gets+0x16>
  401b50:	c6 03 00             	movb   $0x0,(%rbx)
  401b53:	b8 00 00 00 00       	mov    $0x0,%eax
  401b58:	e8 6e ff ff ff       	callq  401acb <save_term>
  401b5d:	4c 89 e0             	mov    %r12,%rax
  401b60:	5b                   	pop    %rbx
  401b61:	5d                   	pop    %rbp
  401b62:	41 5c                	pop    %r12
  401b64:	c3                   	retq   

0000000000401b65 <notify_server>:
  401b65:	53                   	push   %rbx
  401b66:	48 81 ec 10 40 00 00 	sub    $0x4010,%rsp
  401b6d:	64 48 8b 04 25 28 00 	mov    %fs:0x28,%rax
  401b74:	00 00 
  401b76:	48 89 84 24 08 40 00 	mov    %rax,0x4008(%rsp)
  401b7d:	00 
  401b7e:	31 c0                	xor    %eax,%eax
  401b80:	83 3d a1 29 20 00 00 	cmpl   $0x0,0x2029a1(%rip)        # 604528 <is_checker>
  401b87:	0f 85 aa 01 00 00    	jne    401d37 <notify_server+0x1d2>
  401b8d:	89 fb                	mov    %edi,%ebx
  401b8f:	8b 05 af 35 20 00    	mov    0x2035af(%rip),%eax        # 605144 <gets_cnt>
  401b95:	83 c0 64             	add    $0x64,%eax
  401b98:	3d 00 20 00 00       	cmp    $0x2000,%eax
  401b9d:	7e 1e                	jle    401bbd <notify_server+0x58>
  401b9f:	be a0 33 40 00       	mov    $0x4033a0,%esi
  401ba4:	bf 01 00 00 00       	mov    $0x1,%edi
  401ba9:	b8 00 00 00 00       	mov    $0x0,%eax
  401bae:	e8 4d f2 ff ff       	callq  400e00 <__printf_chk@plt>
  401bb3:	bf 01 00 00 00       	mov    $0x1,%edi
  401bb8:	e8 93 f2 ff ff       	callq  400e50 <exit@plt>
  401bbd:	0f be 05 84 35 20 00 	movsbl 0x203584(%rip),%eax        # 605148 <target_prefix>
  401bc4:	83 3d dd 28 20 00 00 	cmpl   $0x0,0x2028dd(%rip)        # 6044a8 <notify>
  401bcb:	74 08                	je     401bd5 <notify_server+0x70>
  401bcd:	8b 15 4d 29 20 00    	mov    0x20294d(%rip),%edx        # 604520 <authkey>
  401bd3:	eb 05                	jmp    401bda <notify_server+0x75>
  401bd5:	ba ff ff ff ff       	mov    $0xffffffff,%edx
  401bda:	85 db                	test   %ebx,%ebx
  401bdc:	74 08                	je     401be6 <notify_server+0x81>
  401bde:	41 b9 81 32 40 00    	mov    $0x403281,%r9d
  401be4:	eb 06                	jmp    401bec <notify_server+0x87>
  401be6:	41 b9 86 32 40 00    	mov    $0x403286,%r9d
  401bec:	68 40 45 60 00       	pushq  $0x604540
  401bf1:	56                   	push   %rsi
  401bf2:	50                   	push   %rax
  401bf3:	52                   	push   %rdx
  401bf4:	44 8b 05 6d 25 20 00 	mov    0x20256d(%rip),%r8d        # 604168 <target_id>
  401bfb:	b9 8b 32 40 00       	mov    $0x40328b,%ecx
  401c00:	ba 00 20 00 00       	mov    $0x2000,%edx
  401c05:	be 01 00 00 00       	mov    $0x1,%esi
  401c0a:	48 8d 7c 24 20       	lea    0x20(%rsp),%rdi
  401c0f:	b8 00 00 00 00       	mov    $0x0,%eax
  401c14:	e8 67 f2 ff ff       	callq  400e80 <__sprintf_chk@plt>
  401c19:	48 83 c4 20          	add    $0x20,%rsp
  401c1d:	83 3d 84 28 20 00 00 	cmpl   $0x0,0x202884(%rip)        # 6044a8 <notify>
  401c24:	0f 84 81 00 00 00    	je     401cab <notify_server+0x146>
  401c2a:	85 db                	test   %ebx,%ebx
  401c2c:	74 6e                	je     401c9c <notify_server+0x137>
  401c2e:	4c 8d 8c 24 00 20 00 	lea    0x2000(%rsp),%r9
  401c35:	00 
  401c36:	41 b8 00 00 00 00    	mov    $0x0,%r8d
  401c3c:	48 89 e1             	mov    %rsp,%rcx
  401c3f:	48 8b 15 2a 25 20 00 	mov    0x20252a(%rip),%rdx        # 604170 <lab>
  401c46:	48 8b 35 2b 25 20 00 	mov    0x20252b(%rip),%rsi        # 604178 <course>
  401c4d:	48 8b 3d 0c 25 20 00 	mov    0x20250c(%rip),%rdi        # 604160 <user_id>
  401c54:	e8 ef 10 00 00       	callq  402d48 <driver_post>
  401c59:	85 c0                	test   %eax,%eax
  401c5b:	79 26                	jns    401c83 <notify_server+0x11e>
  401c5d:	48 8d 94 24 00 20 00 	lea    0x2000(%rsp),%rdx
  401c64:	00 
  401c65:	be a7 32 40 00       	mov    $0x4032a7,%esi
  401c6a:	bf 01 00 00 00       	mov    $0x1,%edi
  401c6f:	b8 00 00 00 00       	mov    $0x0,%eax
  401c74:	e8 87 f1 ff ff       	callq  400e00 <__printf_chk@plt>
  401c79:	bf 01 00 00 00       	mov    $0x1,%edi
  401c7e:	e8 cd f1 ff ff       	callq  400e50 <exit@plt>
  401c83:	bf d0 33 40 00       	mov    $0x4033d0,%edi
  401c88:	e8 43 f0 ff ff       	callq  400cd0 <puts@plt>
  401c8d:	bf b3 32 40 00       	mov    $0x4032b3,%edi
  401c92:	e8 39 f0 ff ff       	callq  400cd0 <puts@plt>
  401c97:	e9 9b 00 00 00       	jmpq   401d37 <notify_server+0x1d2>
  401c9c:	bf bd 32 40 00       	mov    $0x4032bd,%edi
  401ca1:	e8 2a f0 ff ff       	callq  400cd0 <puts@plt>
  401ca6:	e9 8c 00 00 00       	jmpq   401d37 <notify_server+0x1d2>
  401cab:	85 db                	test   %ebx,%ebx
  401cad:	74 07                	je     401cb6 <notify_server+0x151>
  401caf:	ba 81 32 40 00       	mov    $0x403281,%edx
  401cb4:	eb 05                	jmp    401cbb <notify_server+0x156>
  401cb6:	ba 86 32 40 00       	mov    $0x403286,%edx
  401cbb:	be 08 34 40 00       	mov    $0x403408,%esi
  401cc0:	bf 01 00 00 00       	mov    $0x1,%edi
  401cc5:	b8 00 00 00 00       	mov    $0x0,%eax
  401cca:	e8 31 f1 ff ff       	callq  400e00 <__printf_chk@plt>
  401ccf:	48 8b 15 8a 24 20 00 	mov    0x20248a(%rip),%rdx        # 604160 <user_id>
  401cd6:	be c4 32 40 00       	mov    $0x4032c4,%esi
  401cdb:	bf 01 00 00 00       	mov    $0x1,%edi
  401ce0:	b8 00 00 00 00       	mov    $0x0,%eax
  401ce5:	e8 16 f1 ff ff       	callq  400e00 <__printf_chk@plt>
  401cea:	48 8b 15 87 24 20 00 	mov    0x202487(%rip),%rdx        # 604178 <course>
  401cf1:	be d1 32 40 00       	mov    $0x4032d1,%esi
  401cf6:	bf 01 00 00 00       	mov    $0x1,%edi
  401cfb:	b8 00 00 00 00       	mov    $0x0,%eax
  401d00:	e8 fb f0 ff ff       	callq  400e00 <__printf_chk@plt>
  401d05:	48 8b 15 64 24 20 00 	mov    0x202464(%rip),%rdx        # 604170 <lab>
  401d0c:	be dd 32 40 00       	mov    $0x4032dd,%esi
  401d11:	bf 01 00 00 00       	mov    $0x1,%edi
  401d16:	b8 00 00 00 00       	mov    $0x0,%eax
  401d1b:	e8 e0 f0 ff ff       	callq  400e00 <__printf_chk@plt>
  401d20:	48 89 e2             	mov    %rsp,%rdx
  401d23:	be e6 32 40 00       	mov    $0x4032e6,%esi
  401d28:	bf 01 00 00 00       	mov    $0x1,%edi
  401d2d:	b8 00 00 00 00       	mov    $0x0,%eax
  401d32:	e8 c9 f0 ff ff       	callq  400e00 <__printf_chk@plt>
  401d37:	48 8b 84 24 08 40 00 	mov    0x4008(%rsp),%rax
  401d3e:	00 
  401d3f:	64 48 33 04 25 28 00 	xor    %fs:0x28,%rax
  401d46:	00 00 
  401d48:	74 05                	je     401d4f <notify_server+0x1ea>
  401d4a:	e8 a1 ef ff ff       	callq  400cf0 <__stack_chk_fail@plt>
  401d4f:	48 81 c4 10 40 00 00 	add    $0x4010,%rsp
  401d56:	5b                   	pop    %rbx
  401d57:	c3                   	retq   

0000000000401d58 <validate>:
  401d58:	53                   	push   %rbx
  401d59:	89 fb                	mov    %edi,%ebx
  401d5b:	83 3d c6 27 20 00 00 	cmpl   $0x0,0x2027c6(%rip)        # 604528 <is_checker>
  401d62:	74 6b                	je     401dcf <validate+0x77>
  401d64:	39 3d b2 27 20 00    	cmp    %edi,0x2027b2(%rip)        # 60451c <vlevel>
  401d6a:	74 14                	je     401d80 <validate+0x28>
  401d6c:	bf f2 32 40 00       	mov    $0x4032f2,%edi
  401d71:	e8 5a ef ff ff       	callq  400cd0 <puts@plt>
  401d76:	b8 00 00 00 00       	mov    $0x0,%eax
  401d7b:	e8 5e fd ff ff       	callq  401ade <check_fail>
  401d80:	8b 15 92 27 20 00    	mov    0x202792(%rip),%edx        # 604518 <check_level>
  401d86:	39 d7                	cmp    %edx,%edi
  401d88:	74 20                	je     401daa <validate+0x52>
  401d8a:	89 f9                	mov    %edi,%ecx
  401d8c:	be 30 34 40 00       	mov    $0x403430,%esi
  401d91:	bf 01 00 00 00       	mov    $0x1,%edi
  401d96:	b8 00 00 00 00       	mov    $0x0,%eax
  401d9b:	e8 60 f0 ff ff       	callq  400e00 <__printf_chk@plt>
  401da0:	b8 00 00 00 00       	mov    $0x0,%eax
  401da5:	e8 34 fd ff ff       	callq  401ade <check_fail>
  401daa:	0f be 15 97 33 20 00 	movsbl 0x203397(%rip),%edx        # 605148 <target_prefix>
  401db1:	41 b8 40 45 60 00    	mov    $0x604540,%r8d
  401db7:	89 f9                	mov    %edi,%ecx
  401db9:	be 10 33 40 00       	mov    $0x403310,%esi
  401dbe:	bf 01 00 00 00       	mov    $0x1,%edi
  401dc3:	b8 00 00 00 00       	mov    $0x0,%eax
  401dc8:	e8 33 f0 ff ff       	callq  400e00 <__printf_chk@plt>
  401dcd:	eb 49                	jmp    401e18 <validate+0xc0>
  401dcf:	3b 3d 47 27 20 00    	cmp    0x202747(%rip),%edi        # 60451c <vlevel>
  401dd5:	74 18                	je     401def <validate+0x97>
  401dd7:	bf f2 32 40 00       	mov    $0x4032f2,%edi
  401ddc:	e8 ef ee ff ff       	callq  400cd0 <puts@plt>
  401de1:	89 de                	mov    %ebx,%esi
  401de3:	bf 00 00 00 00       	mov    $0x0,%edi
  401de8:	e8 78 fd ff ff       	callq  401b65 <notify_server>
  401ded:	eb 29                	jmp    401e18 <validate+0xc0>
  401def:	0f be 0d 52 33 20 00 	movsbl 0x203352(%rip),%ecx        # 605148 <target_prefix>
  401df6:	89 fa                	mov    %edi,%edx
  401df8:	be 58 34 40 00       	mov    $0x403458,%esi
  401dfd:	bf 01 00 00 00       	mov    $0x1,%edi
  401e02:	b8 00 00 00 00       	mov    $0x0,%eax
  401e07:	e8 f4 ef ff ff       	callq  400e00 <__printf_chk@plt>
  401e0c:	89 de                	mov    %ebx,%esi
  401e0e:	bf 01 00 00 00       	mov    $0x1,%edi
  401e13:	e8 4d fd ff ff       	callq  401b65 <notify_server>
  401e18:	5b                   	pop    %rbx
  401e19:	c3                   	retq   

0000000000401e1a <fail>:
  401e1a:	48 83 ec 08          	sub    $0x8,%rsp
  401e1e:	83 3d 03 27 20 00 00 	cmpl   $0x0,0x202703(%rip)        # 604528 <is_checker>
  401e25:	74 0a                	je     401e31 <fail+0x17>
  401e27:	b8 00 00 00 00       	mov    $0x0,%eax
  401e2c:	e8 ad fc ff ff       	callq  401ade <check_fail>
  401e31:	89 fe                	mov    %edi,%esi
  401e33:	bf 00 00 00 00       	mov    $0x0,%edi
  401e38:	e8 28 fd ff ff       	callq  401b65 <notify_server>
  401e3d:	48 83 c4 08          	add    $0x8,%rsp
  401e41:	c3                   	retq   

0000000000401e42 <bushandler>:
  401e42:	48 83 ec 08          	sub    $0x8,%rsp
  401e46:	83 3d db 26 20 00 00 	cmpl   $0x0,0x2026db(%rip)        # 604528 <is_checker>
  401e4d:	74 14                	je     401e63 <bushandler+0x21>
  401e4f:	bf 25 33 40 00       	mov    $0x403325,%edi
  401e54:	e8 77 ee ff ff       	callq  400cd0 <puts@plt>
  401e59:	b8 00 00 00 00       	mov    $0x0,%eax
  401e5e:	e8 7b fc ff ff       	callq  401ade <check_fail>
  401e63:	bf 90 34 40 00       	mov    $0x403490,%edi
  401e68:	e8 63 ee ff ff       	callq  400cd0 <puts@plt>
  401e6d:	bf 2f 33 40 00       	mov    $0x40332f,%edi
  401e72:	e8 59 ee ff ff       	callq  400cd0 <puts@plt>
  401e77:	be 00 00 00 00       	mov    $0x0,%esi
  401e7c:	bf 00 00 00 00       	mov    $0x0,%edi
  401e81:	e8 df fc ff ff       	callq  401b65 <notify_server>
  401e86:	bf 01 00 00 00       	mov    $0x1,%edi
  401e8b:	e8 c0 ef ff ff       	callq  400e50 <exit@plt>

0000000000401e90 <seghandler>:
  401e90:	48 83 ec 08          	sub    $0x8,%rsp
  401e94:	83 3d 8d 26 20 00 00 	cmpl   $0x0,0x20268d(%rip)        # 604528 <is_checker>
  401e9b:	74 14                	je     401eb1 <seghandler+0x21>
  401e9d:	bf 45 33 40 00       	mov    $0x403345,%edi
  401ea2:	e8 29 ee ff ff       	callq  400cd0 <puts@plt>
  401ea7:	b8 00 00 00 00       	mov    $0x0,%eax
  401eac:	e8 2d fc ff ff       	callq  401ade <check_fail>
  401eb1:	bf b0 34 40 00       	mov    $0x4034b0,%edi
  401eb6:	e8 15 ee ff ff       	callq  400cd0 <puts@plt>
  401ebb:	bf 2f 33 40 00       	mov    $0x40332f,%edi
  401ec0:	e8 0b ee ff ff       	callq  400cd0 <puts@plt>
  401ec5:	be 00 00 00 00       	mov    $0x0,%esi
  401eca:	bf 00 00 00 00       	mov    $0x0,%edi
  401ecf:	e8 91 fc ff ff       	callq  401b65 <notify_server>
  401ed4:	bf 01 00 00 00       	mov    $0x1,%edi
  401ed9:	e8 72 ef ff ff       	callq  400e50 <exit@plt>

0000000000401ede <illegalhandler>:
  401ede:	48 83 ec 08          	sub    $0x8,%rsp
  401ee2:	83 3d 3f 26 20 00 00 	cmpl   $0x0,0x20263f(%rip)        # 604528 <is_checker>
  401ee9:	74 14                	je     401eff <illegalhandler+0x21>
  401eeb:	bf 58 33 40 00       	mov    $0x403358,%edi
  401ef0:	e8 db ed ff ff       	callq  400cd0 <puts@plt>
  401ef5:	b8 00 00 00 00       	mov    $0x0,%eax
  401efa:	e8 df fb ff ff       	callq  401ade <check_fail>
  401eff:	bf d8 34 40 00       	mov    $0x4034d8,%edi
  401f04:	e8 c7 ed ff ff       	callq  400cd0 <puts@plt>
  401f09:	bf 2f 33 40 00       	mov    $0x40332f,%edi
  401f0e:	e8 bd ed ff ff       	callq  400cd0 <puts@plt>
  401f13:	be 00 00 00 00       	mov    $0x0,%esi
  401f18:	bf 00 00 00 00       	mov    $0x0,%edi
  401f1d:	e8 43 fc ff ff       	callq  401b65 <notify_server>
  401f22:	bf 01 00 00 00       	mov    $0x1,%edi
  401f27:	e8 24 ef ff ff       	callq  400e50 <exit@plt>

0000000000401f2c <sigalrmhandler>:
  401f2c:	48 83 ec 08          	sub    $0x8,%rsp
  401f30:	83 3d f1 25 20 00 00 	cmpl   $0x0,0x2025f1(%rip)        # 604528 <is_checker>
  401f37:	74 14                	je     401f4d <sigalrmhandler+0x21>
  401f39:	bf 6c 33 40 00       	mov    $0x40336c,%edi
  401f3e:	e8 8d ed ff ff       	callq  400cd0 <puts@plt>
  401f43:	b8 00 00 00 00       	mov    $0x0,%eax
  401f48:	e8 91 fb ff ff       	callq  401ade <check_fail>
  401f4d:	ba 05 00 00 00       	mov    $0x5,%edx
  401f52:	be 08 35 40 00       	mov    $0x403508,%esi
  401f57:	bf 01 00 00 00       	mov    $0x1,%edi
  401f5c:	b8 00 00 00 00       	mov    $0x0,%eax
  401f61:	e8 9a ee ff ff       	callq  400e00 <__printf_chk@plt>
  401f66:	be 00 00 00 00       	mov    $0x0,%esi
  401f6b:	bf 00 00 00 00       	mov    $0x0,%edi
  401f70:	e8 f0 fb ff ff       	callq  401b65 <notify_server>
  401f75:	bf 01 00 00 00       	mov    $0x1,%edi
  401f7a:	e8 d1 ee ff ff       	callq  400e50 <exit@plt>

0000000000401f7f <launch>:
  401f7f:	55                   	push   %rbp
  401f80:	48 89 e5             	mov    %rsp,%rbp
  401f83:	48 83 ec 10          	sub    $0x10,%rsp
  401f87:	48 89 fa             	mov    %rdi,%rdx
  401f8a:	64 48 8b 04 25 28 00 	mov    %fs:0x28,%rax
  401f91:	00 00 
  401f93:	48 89 45 f8          	mov    %rax,-0x8(%rbp)
  401f97:	31 c0                	xor    %eax,%eax
  401f99:	48 8d 47 1e          	lea    0x1e(%rdi),%rax
  401f9d:	48 83 e0 f0          	and    $0xfffffffffffffff0,%rax
  401fa1:	48 29 c4             	sub    %rax,%rsp
  401fa4:	48 8d 7c 24 0f       	lea    0xf(%rsp),%rdi
  401fa9:	48 83 e7 f0          	and    $0xfffffffffffffff0,%rdi
  401fad:	be f4 00 00 00       	mov    $0xf4,%esi
  401fb2:	e8 59 ed ff ff       	callq  400d10 <memset@plt>
  401fb7:	48 8b 05 02 25 20 00 	mov    0x202502(%rip),%rax        # 6044c0 <stdin@@GLIBC_2.2.5>
  401fbe:	48 39 05 4b 25 20 00 	cmp    %rax,0x20254b(%rip)        # 604510 <infile>
  401fc5:	75 14                	jne    401fdb <launch+0x5c>
  401fc7:	be 74 33 40 00       	mov    $0x403374,%esi
  401fcc:	bf 01 00 00 00       	mov    $0x1,%edi
  401fd1:	b8 00 00 00 00       	mov    $0x0,%eax
  401fd6:	e8 25 ee ff ff       	callq  400e00 <__printf_chk@plt>
  401fdb:	c7 05 37 25 20 00 00 	movl   $0x0,0x202537(%rip)        # 60451c <vlevel>
  401fe2:	00 00 00 
  401fe5:	b8 00 00 00 00       	mov    $0x0,%eax
  401fea:	e8 5b fa ff ff       	callq  401a4a <test>
  401fef:	83 3d 32 25 20 00 00 	cmpl   $0x0,0x202532(%rip)        # 604528 <is_checker>
  401ff6:	74 14                	je     40200c <launch+0x8d>
  401ff8:	bf 81 33 40 00       	mov    $0x403381,%edi
  401ffd:	e8 ce ec ff ff       	callq  400cd0 <puts@plt>
  402002:	b8 00 00 00 00       	mov    $0x0,%eax
  402007:	e8 d2 fa ff ff       	callq  401ade <check_fail>
  40200c:	bf 8c 33 40 00       	mov    $0x40338c,%edi
  402011:	e8 ba ec ff ff       	callq  400cd0 <puts@plt>
  402016:	48 8b 45 f8          	mov    -0x8(%rbp),%rax
  40201a:	64 48 33 04 25 28 00 	xor    %fs:0x28,%rax
  402021:	00 00 
  402023:	74 05                	je     40202a <launch+0xab>
  402025:	e8 c6 ec ff ff       	callq  400cf0 <__stack_chk_fail@plt>
  40202a:	c9                   	leaveq 
  40202b:	c3                   	retq   

000000000040202c <stable_launch>:
  40202c:	53                   	push   %rbx
  40202d:	48 89 3d d4 24 20 00 	mov    %rdi,0x2024d4(%rip)        # 604508 <global_offset>
  402034:	41 b9 00 00 00 00    	mov    $0x0,%r9d
  40203a:	41 b8 00 00 00 00    	mov    $0x0,%r8d
  402040:	b9 32 01 00 00       	mov    $0x132,%ecx
  402045:	ba 07 00 00 00       	mov    $0x7,%edx
  40204a:	be 00 00 10 00       	mov    $0x100000,%esi
  40204f:	bf 00 60 58 55       	mov    $0x55586000,%edi
  402054:	e8 a7 ec ff ff       	callq  400d00 <mmap@plt>
  402059:	48 89 c3             	mov    %rax,%rbx
  40205c:	48 3d 00 60 58 55    	cmp    $0x55586000,%rax
  402062:	74 37                	je     40209b <stable_launch+0x6f>
  402064:	be 00 00 10 00       	mov    $0x100000,%esi
  402069:	48 89 c7             	mov    %rax,%rdi
  40206c:	e8 7f ed ff ff       	callq  400df0 <munmap@plt>
  402071:	b9 00 60 58 55       	mov    $0x55586000,%ecx
  402076:	ba 40 35 40 00       	mov    $0x403540,%edx
  40207b:	be 01 00 00 00       	mov    $0x1,%esi
  402080:	48 8b 3d 59 24 20 00 	mov    0x202459(%rip),%rdi        # 6044e0 <stderr@@GLIBC_2.2.5>
  402087:	b8 00 00 00 00       	mov    $0x0,%eax
  40208c:	e8 df ed ff ff       	callq  400e70 <__fprintf_chk@plt>
  402091:	bf 01 00 00 00       	mov    $0x1,%edi
  402096:	e8 b5 ed ff ff       	callq  400e50 <exit@plt>
  40209b:	48 8d 90 f8 ff 0f 00 	lea    0xffff8(%rax),%rdx
  4020a2:	48 89 15 a7 30 20 00 	mov    %rdx,0x2030a7(%rip)        # 605150 <stack_top>
  4020a9:	48 89 e0             	mov    %rsp,%rax
  4020ac:	48 89 d4             	mov    %rdx,%rsp
  4020af:	48 89 c2             	mov    %rax,%rdx
  4020b2:	48 89 15 47 24 20 00 	mov    %rdx,0x202447(%rip)        # 604500 <global_save_stack>
  4020b9:	48 8b 3d 48 24 20 00 	mov    0x202448(%rip),%rdi        # 604508 <global_offset>
  4020c0:	e8 ba fe ff ff       	callq  401f7f <launch>
  4020c5:	48 8b 05 34 24 20 00 	mov    0x202434(%rip),%rax        # 604500 <global_save_stack>
  4020cc:	48 89 c4             	mov    %rax,%rsp
  4020cf:	be 00 00 10 00       	mov    $0x100000,%esi
  4020d4:	48 89 df             	mov    %rbx,%rdi
  4020d7:	e8 14 ed ff ff       	callq  400df0 <munmap@plt>
  4020dc:	5b                   	pop    %rbx
  4020dd:	c3                   	retq   

00000000004020de <rio_readinitb>:
  4020de:	89 37                	mov    %esi,(%rdi)
  4020e0:	c7 47 04 00 00 00 00 	movl   $0x0,0x4(%rdi)
  4020e7:	48 8d 47 10          	lea    0x10(%rdi),%rax
  4020eb:	48 89 47 08          	mov    %rax,0x8(%rdi)
  4020ef:	c3                   	retq   

00000000004020f0 <sigalrm_handler>:
  4020f0:	48 83 ec 08          	sub    $0x8,%rsp
  4020f4:	b9 00 00 00 00       	mov    $0x0,%ecx
  4020f9:	ba 80 35 40 00       	mov    $0x403580,%edx
  4020fe:	be 01 00 00 00       	mov    $0x1,%esi
  402103:	48 8b 3d d6 23 20 00 	mov    0x2023d6(%rip),%rdi        # 6044e0 <stderr@@GLIBC_2.2.5>
  40210a:	b8 00 00 00 00       	mov    $0x0,%eax
  40210f:	e8 5c ed ff ff       	callq  400e70 <__fprintf_chk@plt>
  402114:	bf 01 00 00 00       	mov    $0x1,%edi
  402119:	e8 32 ed ff ff       	callq  400e50 <exit@plt>

000000000040211e <rio_writen>:
  40211e:	41 55                	push   %r13
  402120:	41 54                	push   %r12
  402122:	55                   	push   %rbp
  402123:	53                   	push   %rbx
  402124:	48 83 ec 08          	sub    $0x8,%rsp
  402128:	41 89 fc             	mov    %edi,%r12d
  40212b:	48 89 f5             	mov    %rsi,%rbp
  40212e:	49 89 d5             	mov    %rdx,%r13
  402131:	48 89 d3             	mov    %rdx,%rbx
  402134:	eb 28                	jmp    40215e <rio_writen+0x40>
  402136:	48 89 da             	mov    %rbx,%rdx
  402139:	48 89 ee             	mov    %rbp,%rsi
  40213c:	44 89 e7             	mov    %r12d,%edi
  40213f:	e8 9c eb ff ff       	callq  400ce0 <write@plt>
  402144:	48 85 c0             	test   %rax,%rax
  402147:	7f 0f                	jg     402158 <rio_writen+0x3a>
  402149:	e8 42 eb ff ff       	callq  400c90 <__errno_location@plt>
  40214e:	83 38 04             	cmpl   $0x4,(%rax)
  402151:	75 15                	jne    402168 <rio_writen+0x4a>
  402153:	b8 00 00 00 00       	mov    $0x0,%eax
  402158:	48 29 c3             	sub    %rax,%rbx
  40215b:	48 01 c5             	add    %rax,%rbp
  40215e:	48 85 db             	test   %rbx,%rbx
  402161:	75 d3                	jne    402136 <rio_writen+0x18>
  402163:	4c 89 e8             	mov    %r13,%rax
  402166:	eb 07                	jmp    40216f <rio_writen+0x51>
  402168:	48 c7 c0 ff ff ff ff 	mov    $0xffffffffffffffff,%rax
  40216f:	48 83 c4 08          	add    $0x8,%rsp
  402173:	5b                   	pop    %rbx
  402174:	5d                   	pop    %rbp
  402175:	41 5c                	pop    %r12
  402177:	41 5d                	pop    %r13
  402179:	c3                   	retq   

000000000040217a <rio_read>:
  40217a:	41 55                	push   %r13
  40217c:	41 54                	push   %r12
  40217e:	55                   	push   %rbp
  40217f:	53                   	push   %rbx
  402180:	48 83 ec 08          	sub    $0x8,%rsp
  402184:	48 89 fb             	mov    %rdi,%rbx
  402187:	49 89 f5             	mov    %rsi,%r13
  40218a:	49 89 d4             	mov    %rdx,%r12
  40218d:	eb 2e                	jmp    4021bd <rio_read+0x43>
  40218f:	48 8d 6b 10          	lea    0x10(%rbx),%rbp
  402193:	8b 3b                	mov    (%rbx),%edi
  402195:	ba 00 20 00 00       	mov    $0x2000,%edx
  40219a:	48 89 ee             	mov    %rbp,%rsi
  40219d:	e8 9e eb ff ff       	callq  400d40 <read@plt>
  4021a2:	89 43 04             	mov    %eax,0x4(%rbx)
  4021a5:	85 c0                	test   %eax,%eax
  4021a7:	79 0c                	jns    4021b5 <rio_read+0x3b>
  4021a9:	e8 e2 ea ff ff       	callq  400c90 <__errno_location@plt>
  4021ae:	83 38 04             	cmpl   $0x4,(%rax)
  4021b1:	74 0a                	je     4021bd <rio_read+0x43>
  4021b3:	eb 37                	jmp    4021ec <rio_read+0x72>
  4021b5:	85 c0                	test   %eax,%eax
  4021b7:	74 3c                	je     4021f5 <rio_read+0x7b>
  4021b9:	48 89 6b 08          	mov    %rbp,0x8(%rbx)
  4021bd:	8b 6b 04             	mov    0x4(%rbx),%ebp
  4021c0:	85 ed                	test   %ebp,%ebp
  4021c2:	7e cb                	jle    40218f <rio_read+0x15>
  4021c4:	89 e8                	mov    %ebp,%eax
  4021c6:	49 39 c4             	cmp    %rax,%r12
  4021c9:	77 03                	ja     4021ce <rio_read+0x54>
  4021cb:	44 89 e5             	mov    %r12d,%ebp
  4021ce:	4c 63 e5             	movslq %ebp,%r12
  4021d1:	48 8b 73 08          	mov    0x8(%rbx),%rsi
  4021d5:	4c 89 e2             	mov    %r12,%rdx
  4021d8:	4c 89 ef             	mov    %r13,%rdi
  4021db:	e8 c0 eb ff ff       	callq  400da0 <memcpy@plt>
  4021e0:	4c 01 63 08          	add    %r12,0x8(%rbx)
  4021e4:	29 6b 04             	sub    %ebp,0x4(%rbx)
  4021e7:	4c 89 e0             	mov    %r12,%rax
  4021ea:	eb 0e                	jmp    4021fa <rio_read+0x80>
  4021ec:	48 c7 c0 ff ff ff ff 	mov    $0xffffffffffffffff,%rax
  4021f3:	eb 05                	jmp    4021fa <rio_read+0x80>
  4021f5:	b8 00 00 00 00       	mov    $0x0,%eax
  4021fa:	48 83 c4 08          	add    $0x8,%rsp
  4021fe:	5b                   	pop    %rbx
  4021ff:	5d                   	pop    %rbp
  402200:	41 5c                	pop    %r12
  402202:	41 5d                	pop    %r13
  402204:	c3                   	retq   

0000000000402205 <rio_readlineb>:
  402205:	41 55                	push   %r13
  402207:	41 54                	push   %r12
  402209:	55                   	push   %rbp
  40220a:	53                   	push   %rbx
  40220b:	48 83 ec 18          	sub    $0x18,%rsp
  40220f:	49 89 fd             	mov    %rdi,%r13
  402212:	48 89 f5             	mov    %rsi,%rbp
  402215:	49 89 d4             	mov    %rdx,%r12
  402218:	64 48 8b 04 25 28 00 	mov    %fs:0x28,%rax
  40221f:	00 00 
  402221:	48 89 44 24 08       	mov    %rax,0x8(%rsp)
  402226:	31 c0                	xor    %eax,%eax
  402228:	bb 01 00 00 00       	mov    $0x1,%ebx
  40222d:	eb 3f                	jmp    40226e <rio_readlineb+0x69>
  40222f:	ba 01 00 00 00       	mov    $0x1,%edx
  402234:	48 8d 74 24 07       	lea    0x7(%rsp),%rsi
  402239:	4c 89 ef             	mov    %r13,%rdi
  40223c:	e8 39 ff ff ff       	callq  40217a <rio_read>
  402241:	83 f8 01             	cmp    $0x1,%eax
  402244:	75 15                	jne    40225b <rio_readlineb+0x56>
  402246:	48 8d 45 01          	lea    0x1(%rbp),%rax
  40224a:	0f b6 54 24 07       	movzbl 0x7(%rsp),%edx
  40224f:	88 55 00             	mov    %dl,0x0(%rbp)
  402252:	80 7c 24 07 0a       	cmpb   $0xa,0x7(%rsp)
  402257:	75 0e                	jne    402267 <rio_readlineb+0x62>
  402259:	eb 1a                	jmp    402275 <rio_readlineb+0x70>
  40225b:	85 c0                	test   %eax,%eax
  40225d:	75 22                	jne    402281 <rio_readlineb+0x7c>
  40225f:	48 83 fb 01          	cmp    $0x1,%rbx
  402263:	75 13                	jne    402278 <rio_readlineb+0x73>
  402265:	eb 23                	jmp    40228a <rio_readlineb+0x85>
  402267:	48 83 c3 01          	add    $0x1,%rbx
  40226b:	48 89 c5             	mov    %rax,%rbp
  40226e:	4c 39 e3             	cmp    %r12,%rbx
  402271:	72 bc                	jb     40222f <rio_readlineb+0x2a>
  402273:	eb 03                	jmp    402278 <rio_readlineb+0x73>
  402275:	48 89 c5             	mov    %rax,%rbp
  402278:	c6 45 00 00          	movb   $0x0,0x0(%rbp)
  40227c:	48 89 d8             	mov    %rbx,%rax
  40227f:	eb 0e                	jmp    40228f <rio_readlineb+0x8a>
  402281:	48 c7 c0 ff ff ff ff 	mov    $0xffffffffffffffff,%rax
  402288:	eb 05                	jmp    40228f <rio_readlineb+0x8a>
  40228a:	b8 00 00 00 00       	mov    $0x0,%eax
  40228f:	48 8b 4c 24 08       	mov    0x8(%rsp),%rcx
  402294:	64 48 33 0c 25 28 00 	xor    %fs:0x28,%rcx
  40229b:	00 00 
  40229d:	74 05                	je     4022a4 <rio_readlineb+0x9f>
  40229f:	e8 4c ea ff ff       	callq  400cf0 <__stack_chk_fail@plt>
  4022a4:	48 83 c4 18          	add    $0x18,%rsp
  4022a8:	5b                   	pop    %rbx
  4022a9:	5d                   	pop    %rbp
  4022aa:	41 5c                	pop    %r12
  4022ac:	41 5d                	pop    %r13
  4022ae:	c3                   	retq   

00000000004022af <urlencode>:
  4022af:	41 54                	push   %r12
  4022b1:	55                   	push   %rbp
  4022b2:	53                   	push   %rbx
  4022b3:	48 83 ec 10          	sub    $0x10,%rsp
  4022b7:	48 89 fb             	mov    %rdi,%rbx
  4022ba:	48 89 f5             	mov    %rsi,%rbp
  4022bd:	64 48 8b 04 25 28 00 	mov    %fs:0x28,%rax
  4022c4:	00 00 
  4022c6:	48 89 44 24 08       	mov    %rax,0x8(%rsp)
  4022cb:	31 c0                	xor    %eax,%eax
  4022cd:	48 c7 c1 ff ff ff ff 	mov    $0xffffffffffffffff,%rcx
  4022d4:	f2 ae                	repnz scas %es:(%rdi),%al
  4022d6:	48 f7 d1             	not    %rcx
  4022d9:	8d 41 ff             	lea    -0x1(%rcx),%eax
  4022dc:	e9 aa 00 00 00       	jmpq   40238b <urlencode+0xdc>
  4022e1:	44 0f b6 03          	movzbl (%rbx),%r8d
  4022e5:	41 80 f8 2a          	cmp    $0x2a,%r8b
  4022e9:	0f 94 c2             	sete   %dl
  4022ec:	41 80 f8 2d          	cmp    $0x2d,%r8b
  4022f0:	0f 94 c0             	sete   %al
  4022f3:	08 c2                	or     %al,%dl
  4022f5:	75 24                	jne    40231b <urlencode+0x6c>
  4022f7:	41 80 f8 2e          	cmp    $0x2e,%r8b
  4022fb:	74 1e                	je     40231b <urlencode+0x6c>
  4022fd:	41 80 f8 5f          	cmp    $0x5f,%r8b
  402301:	74 18                	je     40231b <urlencode+0x6c>
  402303:	41 8d 40 d0          	lea    -0x30(%r8),%eax
  402307:	3c 09                	cmp    $0x9,%al
  402309:	76 10                	jbe    40231b <urlencode+0x6c>
  40230b:	41 8d 40 bf          	lea    -0x41(%r8),%eax
  40230f:	3c 19                	cmp    $0x19,%al
  402311:	76 08                	jbe    40231b <urlencode+0x6c>
  402313:	41 8d 40 9f          	lea    -0x61(%r8),%eax
  402317:	3c 19                	cmp    $0x19,%al
  402319:	77 0a                	ja     402325 <urlencode+0x76>
  40231b:	44 88 45 00          	mov    %r8b,0x0(%rbp)
  40231f:	48 8d 6d 01          	lea    0x1(%rbp),%rbp
  402323:	eb 5f                	jmp    402384 <urlencode+0xd5>
  402325:	41 80 f8 20          	cmp    $0x20,%r8b
  402329:	75 0a                	jne    402335 <urlencode+0x86>
  40232b:	c6 45 00 2b          	movb   $0x2b,0x0(%rbp)
  40232f:	48 8d 6d 01          	lea    0x1(%rbp),%rbp
  402333:	eb 4f                	jmp    402384 <urlencode+0xd5>
  402335:	41 8d 40 e0          	lea    -0x20(%r8),%eax
  402339:	3c 5f                	cmp    $0x5f,%al
  40233b:	0f 96 c2             	setbe  %dl
  40233e:	41 80 f8 09          	cmp    $0x9,%r8b
  402342:	0f 94 c0             	sete   %al
  402345:	08 c2                	or     %al,%dl
  402347:	74 50                	je     402399 <urlencode+0xea>
  402349:	45 0f b6 c0          	movzbl %r8b,%r8d
  40234d:	b9 18 36 40 00       	mov    $0x403618,%ecx
  402352:	ba 08 00 00 00       	mov    $0x8,%edx
  402357:	be 01 00 00 00       	mov    $0x1,%esi
  40235c:	48 89 e7             	mov    %rsp,%rdi
  40235f:	b8 00 00 00 00       	mov    $0x0,%eax
  402364:	e8 17 eb ff ff       	callq  400e80 <__sprintf_chk@plt>
  402369:	0f b6 04 24          	movzbl (%rsp),%eax
  40236d:	88 45 00             	mov    %al,0x0(%rbp)
  402370:	0f b6 44 24 01       	movzbl 0x1(%rsp),%eax
  402375:	88 45 01             	mov    %al,0x1(%rbp)
  402378:	0f b6 44 24 02       	movzbl 0x2(%rsp),%eax
  40237d:	88 45 02             	mov    %al,0x2(%rbp)
  402380:	48 8d 6d 03          	lea    0x3(%rbp),%rbp
  402384:	48 83 c3 01          	add    $0x1,%rbx
  402388:	44 89 e0             	mov    %r12d,%eax
  40238b:	44 8d 60 ff          	lea    -0x1(%rax),%r12d
  40238f:	85 c0                	test   %eax,%eax
  402391:	0f 85 4a ff ff ff    	jne    4022e1 <urlencode+0x32>
  402397:	eb 05                	jmp    40239e <urlencode+0xef>
  402399:	b8 ff ff ff ff       	mov    $0xffffffff,%eax
  40239e:	48 8b 74 24 08       	mov    0x8(%rsp),%rsi
  4023a3:	64 48 33 34 25 28 00 	xor    %fs:0x28,%rsi
  4023aa:	00 00 
  4023ac:	74 05                	je     4023b3 <urlencode+0x104>
  4023ae:	e8 3d e9 ff ff       	callq  400cf0 <__stack_chk_fail@plt>
  4023b3:	48 83 c4 10          	add    $0x10,%rsp
  4023b7:	5b                   	pop    %rbx
  4023b8:	5d                   	pop    %rbp
  4023b9:	41 5c                	pop    %r12
  4023bb:	c3                   	retq   

00000000004023bc <submitr>:
  4023bc:	41 57                	push   %r15
  4023be:	41 56                	push   %r14
  4023c0:	41 55                	push   %r13
  4023c2:	41 54                	push   %r12
  4023c4:	55                   	push   %rbp
  4023c5:	53                   	push   %rbx
  4023c6:	48 81 ec 58 a0 00 00 	sub    $0xa058,%rsp
  4023cd:	49 89 fc             	mov    %rdi,%r12
  4023d0:	89 74 24 04          	mov    %esi,0x4(%rsp)
  4023d4:	49 89 d7             	mov    %rdx,%r15
  4023d7:	49 89 ce             	mov    %rcx,%r14
  4023da:	4c 89 44 24 08       	mov    %r8,0x8(%rsp)
  4023df:	4d 89 cd             	mov    %r9,%r13
  4023e2:	48 8b 9c 24 90 a0 00 	mov    0xa090(%rsp),%rbx
  4023e9:	00 
  4023ea:	64 48 8b 04 25 28 00 	mov    %fs:0x28,%rax
  4023f1:	00 00 
  4023f3:	48 89 84 24 48 a0 00 	mov    %rax,0xa048(%rsp)
  4023fa:	00 
  4023fb:	31 c0                	xor    %eax,%eax
  4023fd:	c7 44 24 1c 00 00 00 	movl   $0x0,0x1c(%rsp)
  402404:	00 
  402405:	ba 00 00 00 00       	mov    $0x0,%edx
  40240a:	be 01 00 00 00       	mov    $0x1,%esi
  40240f:	bf 02 00 00 00       	mov    $0x2,%edi
  402414:	e8 77 ea ff ff       	callq  400e90 <socket@plt>
  402419:	85 c0                	test   %eax,%eax
  40241b:	79 4e                	jns    40246b <submitr+0xaf>
  40241d:	48 b8 45 72 72 6f 72 	movabs $0x43203a726f727245,%rax
  402424:	3a 20 43 
  402427:	48 89 03             	mov    %rax,(%rbx)
  40242a:	48 b8 6c 69 65 6e 74 	movabs $0x6e7520746e65696c,%rax
  402431:	20 75 6e 
  402434:	48 89 43 08          	mov    %rax,0x8(%rbx)
  402438:	48 b8 61 62 6c 65 20 	movabs $0x206f7420656c6261,%rax
  40243f:	74 6f 20 
  402442:	48 89 43 10          	mov    %rax,0x10(%rbx)
  402446:	48 b8 63 72 65 61 74 	movabs $0x7320657461657263,%rax
  40244d:	65 20 73 
  402450:	48 89 43 18          	mov    %rax,0x18(%rbx)
  402454:	c7 43 20 6f 63 6b 65 	movl   $0x656b636f,0x20(%rbx)
  40245b:	66 c7 43 24 74 00    	movw   $0x74,0x24(%rbx)
  402461:	b8 ff ff ff ff       	mov    $0xffffffff,%eax
  402466:	e9 97 06 00 00       	jmpq   402b02 <submitr+0x746>
  40246b:	89 c5                	mov    %eax,%ebp
  40246d:	4c 89 e7             	mov    %r12,%rdi
  402470:	e8 fb e8 ff ff       	callq  400d70 <gethostbyname@plt>
  402475:	48 85 c0             	test   %rax,%rax
  402478:	75 67                	jne    4024e1 <submitr+0x125>
  40247a:	48 b8 45 72 72 6f 72 	movabs $0x44203a726f727245,%rax
  402481:	3a 20 44 
  402484:	48 89 03             	mov    %rax,(%rbx)
  402487:	48 b8 4e 53 20 69 73 	movabs $0x6e7520736920534e,%rax
  40248e:	20 75 6e 
  402491:	48 89 43 08          	mov    %rax,0x8(%rbx)
  402495:	48 b8 61 62 6c 65 20 	movabs $0x206f7420656c6261,%rax
  40249c:	74 6f 20 
  40249f:	48 89 43 10          	mov    %rax,0x10(%rbx)
  4024a3:	48 b8 72 65 73 6f 6c 	movabs $0x2065766c6f736572,%rax
  4024aa:	76 65 20 
  4024ad:	48 89 43 18          	mov    %rax,0x18(%rbx)
  4024b1:	48 b8 73 65 72 76 65 	movabs $0x6120726576726573,%rax
  4024b8:	72 20 61 
  4024bb:	48 89 43 20          	mov    %rax,0x20(%rbx)
  4024bf:	c7 43 28 64 64 72 65 	movl   $0x65726464,0x28(%rbx)
  4024c6:	66 c7 43 2c 73 73    	movw   $0x7373,0x2c(%rbx)
  4024cc:	c6 43 2e 00          	movb   $0x0,0x2e(%rbx)
  4024d0:	89 ef                	mov    %ebp,%edi
  4024d2:	e8 59 e8 ff ff       	callq  400d30 <close@plt>
  4024d7:	b8 ff ff ff ff       	mov    $0xffffffff,%eax
  4024dc:	e9 21 06 00 00       	jmpq   402b02 <submitr+0x746>
  4024e1:	48 c7 44 24 20 00 00 	movq   $0x0,0x20(%rsp)
  4024e8:	00 00 
  4024ea:	48 c7 44 24 28 00 00 	movq   $0x0,0x28(%rsp)
  4024f1:	00 00 
  4024f3:	66 c7 44 24 20 02 00 	movw   $0x2,0x20(%rsp)
  4024fa:	48 63 50 14          	movslq 0x14(%rax),%rdx
  4024fe:	48 8b 40 18          	mov    0x18(%rax),%rax
  402502:	48 8b 30             	mov    (%rax),%rsi
  402505:	48 8d 7c 24 24       	lea    0x24(%rsp),%rdi
  40250a:	b9 0c 00 00 00       	mov    $0xc,%ecx
  40250f:	e8 6c e8 ff ff       	callq  400d80 <__memmove_chk@plt>
  402514:	0f b7 44 24 04       	movzwl 0x4(%rsp),%eax
  402519:	66 c1 c8 08          	ror    $0x8,%ax
  40251d:	66 89 44 24 22       	mov    %ax,0x22(%rsp)
  402522:	ba 10 00 00 00       	mov    $0x10,%edx
  402527:	48 8d 74 24 20       	lea    0x20(%rsp),%rsi
  40252c:	89 ef                	mov    %ebp,%edi
  40252e:	e8 2d e9 ff ff       	callq  400e60 <connect@plt>
  402533:	85 c0                	test   %eax,%eax
  402535:	79 59                	jns    402590 <submitr+0x1d4>
  402537:	48 b8 45 72 72 6f 72 	movabs $0x55203a726f727245,%rax
  40253e:	3a 20 55 
  402541:	48 89 03             	mov    %rax,(%rbx)
  402544:	48 b8 6e 61 62 6c 65 	movabs $0x6f7420656c62616e,%rax
  40254b:	20 74 6f 
  40254e:	48 89 43 08          	mov    %rax,0x8(%rbx)
  402552:	48 b8 20 63 6f 6e 6e 	movabs $0x7463656e6e6f6320,%rax
  402559:	65 63 74 
  40255c:	48 89 43 10          	mov    %rax,0x10(%rbx)
  402560:	48 b8 20 74 6f 20 74 	movabs $0x20656874206f7420,%rax
  402567:	68 65 20 
  40256a:	48 89 43 18          	mov    %rax,0x18(%rbx)
  40256e:	c7 43 20 73 65 72 76 	movl   $0x76726573,0x20(%rbx)
  402575:	66 c7 43 24 65 72    	movw   $0x7265,0x24(%rbx)
  40257b:	c6 43 26 00          	movb   $0x0,0x26(%rbx)
  40257f:	89 ef                	mov    %ebp,%edi
  402581:	e8 aa e7 ff ff       	callq  400d30 <close@plt>
  402586:	b8 ff ff ff ff       	mov    $0xffffffff,%eax
  40258b:	e9 72 05 00 00       	jmpq   402b02 <submitr+0x746>
  402590:	48 c7 c6 ff ff ff ff 	mov    $0xffffffffffffffff,%rsi
  402597:	b8 00 00 00 00       	mov    $0x0,%eax
  40259c:	48 89 f1             	mov    %rsi,%rcx
  40259f:	4c 89 ef             	mov    %r13,%rdi
  4025a2:	f2 ae                	repnz scas %es:(%rdi),%al
  4025a4:	48 f7 d1             	not    %rcx
  4025a7:	48 89 ca             	mov    %rcx,%rdx
  4025aa:	48 89 f1             	mov    %rsi,%rcx
  4025ad:	4c 89 ff             	mov    %r15,%rdi
  4025b0:	f2 ae                	repnz scas %es:(%rdi),%al
  4025b2:	48 f7 d1             	not    %rcx
  4025b5:	49 89 c8             	mov    %rcx,%r8
  4025b8:	48 89 f1             	mov    %rsi,%rcx
  4025bb:	4c 89 f7             	mov    %r14,%rdi
  4025be:	f2 ae                	repnz scas %es:(%rdi),%al
  4025c0:	48 f7 d1             	not    %rcx
  4025c3:	4d 8d 44 08 fe       	lea    -0x2(%r8,%rcx,1),%r8
  4025c8:	48 89 f1             	mov    %rsi,%rcx
  4025cb:	48 8b 7c 24 08       	mov    0x8(%rsp),%rdi
  4025d0:	f2 ae                	repnz scas %es:(%rdi),%al
  4025d2:	48 89 c8             	mov    %rcx,%rax
  4025d5:	48 f7 d0             	not    %rax
  4025d8:	49 8d 4c 00 ff       	lea    -0x1(%r8,%rax,1),%rcx
  4025dd:	48 8d 44 52 fd       	lea    -0x3(%rdx,%rdx,2),%rax
  4025e2:	48 8d 84 01 80 00 00 	lea    0x80(%rcx,%rax,1),%rax
  4025e9:	00 
  4025ea:	48 3d 00 20 00 00    	cmp    $0x2000,%rax
  4025f0:	76 72                	jbe    402664 <submitr+0x2a8>
  4025f2:	48 b8 45 72 72 6f 72 	movabs $0x52203a726f727245,%rax
  4025f9:	3a 20 52 
  4025fc:	48 89 03             	mov    %rax,(%rbx)
  4025ff:	48 b8 65 73 75 6c 74 	movabs $0x747320746c757365,%rax
  402606:	20 73 74 
  402609:	48 89 43 08          	mov    %rax,0x8(%rbx)
  40260d:	48 b8 72 69 6e 67 20 	movabs $0x6f6f7420676e6972,%rax
  402614:	74 6f 6f 
  402617:	48 89 43 10          	mov    %rax,0x10(%rbx)
  40261b:	48 b8 20 6c 61 72 67 	movabs $0x202e656772616c20,%rax
  402622:	65 2e 20 
  402625:	48 89 43 18          	mov    %rax,0x18(%rbx)
  402629:	48 b8 49 6e 63 72 65 	movabs $0x6573616572636e49,%rax
  402630:	61 73 65 
  402633:	48 89 43 20          	mov    %rax,0x20(%rbx)
  402637:	48 b8 20 53 55 42 4d 	movabs $0x5254494d42555320,%rax
  40263e:	49 54 52 
  402641:	48 89 43 28          	mov    %rax,0x28(%rbx)
  402645:	48 b8 5f 4d 41 58 42 	movabs $0x46554258414d5f,%rax
  40264c:	55 46 00 
  40264f:	48 89 43 30          	mov    %rax,0x30(%rbx)
  402653:	89 ef                	mov    %ebp,%edi
  402655:	e8 d6 e6 ff ff       	callq  400d30 <close@plt>
  40265a:	b8 ff ff ff ff       	mov    $0xffffffff,%eax
  40265f:	e9 9e 04 00 00       	jmpq   402b02 <submitr+0x746>
  402664:	48 8d b4 24 40 40 00 	lea    0x4040(%rsp),%rsi
  40266b:	00 
  40266c:	b9 00 04 00 00       	mov    $0x400,%ecx
  402671:	b8 00 00 00 00       	mov    $0x0,%eax
  402676:	48 89 f7             	mov    %rsi,%rdi
  402679:	f3 48 ab             	rep stos %rax,%es:(%rdi)
  40267c:	4c 89 ef             	mov    %r13,%rdi
  40267f:	e8 2b fc ff ff       	callq  4022af <urlencode>
  402684:	85 c0                	test   %eax,%eax
  402686:	0f 89 8a 00 00 00    	jns    402716 <submitr+0x35a>
  40268c:	48 b8 45 72 72 6f 72 	movabs $0x52203a726f727245,%rax
  402693:	3a 20 52 
  402696:	48 89 03             	mov    %rax,(%rbx)
  402699:	48 b8 65 73 75 6c 74 	movabs $0x747320746c757365,%rax
  4026a0:	20 73 74 
  4026a3:	48 89 43 08          	mov    %rax,0x8(%rbx)
  4026a7:	48 b8 72 69 6e 67 20 	movabs $0x6e6f6320676e6972,%rax
  4026ae:	63 6f 6e 
  4026b1:	48 89 43 10          	mov    %rax,0x10(%rbx)
  4026b5:	48 b8 74 61 69 6e 73 	movabs $0x6e6120736e696174,%rax
  4026bc:	20 61 6e 
  4026bf:	48 89 43 18          	mov    %rax,0x18(%rbx)
  4026c3:	48 b8 20 69 6c 6c 65 	movabs $0x6c6167656c6c6920,%rax
  4026ca:	67 61 6c 
  4026cd:	48 89 43 20          	mov    %rax,0x20(%rbx)
  4026d1:	48 b8 20 6f 72 20 75 	movabs $0x72706e7520726f20,%rax
  4026d8:	6e 70 72 
  4026db:	48 89 43 28          	mov    %rax,0x28(%rbx)
  4026df:	48 b8 69 6e 74 61 62 	movabs $0x20656c6261746e69,%rax
  4026e6:	6c 65 20 
  4026e9:	48 89 43 30          	mov    %rax,0x30(%rbx)
  4026ed:	48 b8 63 68 61 72 61 	movabs $0x6574636172616863,%rax
  4026f4:	63 74 65 
  4026f7:	48 89 43 38          	mov    %rax,0x38(%rbx)
  4026fb:	66 c7 43 40 72 2e    	movw   $0x2e72,0x40(%rbx)
  402701:	c6 43 42 00          	movb   $0x0,0x42(%rbx)
  402705:	89 ef                	mov    %ebp,%edi
  402707:	e8 24 e6 ff ff       	callq  400d30 <close@plt>
  40270c:	b8 ff ff ff ff       	mov    $0xffffffff,%eax
  402711:	e9 ec 03 00 00       	jmpq   402b02 <submitr+0x746>
  402716:	4c 8d ac 24 40 20 00 	lea    0x2040(%rsp),%r13
  40271d:	00 
  40271e:	41 54                	push   %r12
  402720:	48 8d 84 24 48 40 00 	lea    0x4048(%rsp),%rax
  402727:	00 
  402728:	50                   	push   %rax
  402729:	4d 89 f9             	mov    %r15,%r9
  40272c:	4d 89 f0             	mov    %r14,%r8
  40272f:	b9 a8 35 40 00       	mov    $0x4035a8,%ecx
  402734:	ba 00 20 00 00       	mov    $0x2000,%edx
  402739:	be 01 00 00 00       	mov    $0x1,%esi
  40273e:	4c 89 ef             	mov    %r13,%rdi
  402741:	b8 00 00 00 00       	mov    $0x0,%eax
  402746:	e8 35 e7 ff ff       	callq  400e80 <__sprintf_chk@plt>
  40274b:	b8 00 00 00 00       	mov    $0x0,%eax
  402750:	48 c7 c1 ff ff ff ff 	mov    $0xffffffffffffffff,%rcx
  402757:	4c 89 ef             	mov    %r13,%rdi
  40275a:	f2 ae                	repnz scas %es:(%rdi),%al
  40275c:	48 f7 d1             	not    %rcx
  40275f:	48 8d 51 ff          	lea    -0x1(%rcx),%rdx
  402763:	4c 89 ee             	mov    %r13,%rsi
  402766:	89 ef                	mov    %ebp,%edi
  402768:	e8 b1 f9 ff ff       	callq  40211e <rio_writen>
  40276d:	48 83 c4 10          	add    $0x10,%rsp
  402771:	48 85 c0             	test   %rax,%rax
  402774:	79 6e                	jns    4027e4 <submitr+0x428>
  402776:	48 b8 45 72 72 6f 72 	movabs $0x43203a726f727245,%rax
  40277d:	3a 20 43 
  402780:	48 89 03             	mov    %rax,(%rbx)
  402783:	48 b8 6c 69 65 6e 74 	movabs $0x6e7520746e65696c,%rax
  40278a:	20 75 6e 
  40278d:	48 89 43 08          	mov    %rax,0x8(%rbx)
  402791:	48 b8 61 62 6c 65 20 	movabs $0x206f7420656c6261,%rax
  402798:	74 6f 20 
  40279b:	48 89 43 10          	mov    %rax,0x10(%rbx)
  40279f:	48 b8 77 72 69 74 65 	movabs $0x6f74206574697277,%rax
  4027a6:	20 74 6f 
  4027a9:	48 89 43 18          	mov    %rax,0x18(%rbx)
  4027ad:	48 b8 20 74 68 65 20 	movabs $0x7365722065687420,%rax
  4027b4:	72 65 73 
  4027b7:	48 89 43 20          	mov    %rax,0x20(%rbx)
  4027bb:	48 b8 75 6c 74 20 73 	movabs $0x7672657320746c75,%rax
  4027c2:	65 72 76 
  4027c5:	48 89 43 28          	mov    %rax,0x28(%rbx)
  4027c9:	66 c7 43 30 65 72    	movw   $0x7265,0x30(%rbx)
  4027cf:	c6 43 32 00          	movb   $0x0,0x32(%rbx)
  4027d3:	89 ef                	mov    %ebp,%edi
  4027d5:	e8 56 e5 ff ff       	callq  400d30 <close@plt>
  4027da:	b8 ff ff ff ff       	mov    $0xffffffff,%eax
  4027df:	e9 1e 03 00 00       	jmpq   402b02 <submitr+0x746>
  4027e4:	89 ee                	mov    %ebp,%esi
  4027e6:	48 8d 7c 24 30       	lea    0x30(%rsp),%rdi
  4027eb:	e8 ee f8 ff ff       	callq  4020de <rio_readinitb>
  4027f0:	ba 00 20 00 00       	mov    $0x2000,%edx
  4027f5:	48 8d b4 24 40 20 00 	lea    0x2040(%rsp),%rsi
  4027fc:	00 
  4027fd:	48 8d 7c 24 30       	lea    0x30(%rsp),%rdi
  402802:	e8 fe f9 ff ff       	callq  402205 <rio_readlineb>
  402807:	48 85 c0             	test   %rax,%rax
  40280a:	7f 7d                	jg     402889 <submitr+0x4cd>
  40280c:	48 b8 45 72 72 6f 72 	movabs $0x43203a726f727245,%rax
  402813:	3a 20 43 
  402816:	48 89 03             	mov    %rax,(%rbx)
  402819:	48 b8 6c 69 65 6e 74 	movabs $0x6e7520746e65696c,%rax
  402820:	20 75 6e 
  402823:	48 89 43 08          	mov    %rax,0x8(%rbx)
  402827:	48 b8 61 62 6c 65 20 	movabs $0x206f7420656c6261,%rax
  40282e:	74 6f 20 
  402831:	48 89 43 10          	mov    %rax,0x10(%rbx)
  402835:	48 b8 72 65 61 64 20 	movabs $0x7269662064616572,%rax
  40283c:	66 69 72 
  40283f:	48 89 43 18          	mov    %rax,0x18(%rbx)
  402843:	48 b8 73 74 20 68 65 	movabs $0x6564616568207473,%rax
  40284a:	61 64 65 
  40284d:	48 89 43 20          	mov    %rax,0x20(%rbx)
  402851:	48 b8 72 20 66 72 6f 	movabs $0x72206d6f72662072,%rax
  402858:	6d 20 72 
  40285b:	48 89 43 28          	mov    %rax,0x28(%rbx)
  40285f:	48 b8 65 73 75 6c 74 	movabs $0x657320746c757365,%rax
  402866:	20 73 65 
  402869:	48 89 43 30          	mov    %rax,0x30(%rbx)
  40286d:	c7 43 38 72 76 65 72 	movl   $0x72657672,0x38(%rbx)
  402874:	c6 43 3c 00          	movb   $0x0,0x3c(%rbx)
  402878:	89 ef                	mov    %ebp,%edi
  40287a:	e8 b1 e4 ff ff       	callq  400d30 <close@plt>
  40287f:	b8 ff ff ff ff       	mov    $0xffffffff,%eax
  402884:	e9 79 02 00 00       	jmpq   402b02 <submitr+0x746>
  402889:	4c 8d 84 24 40 80 00 	lea    0x8040(%rsp),%r8
  402890:	00 
  402891:	48 8d 4c 24 1c       	lea    0x1c(%rsp),%rcx
  402896:	48 8d 94 24 40 60 00 	lea    0x6040(%rsp),%rdx
  40289d:	00 
  40289e:	be 1f 36 40 00       	mov    $0x40361f,%esi
  4028a3:	48 8d bc 24 40 20 00 	lea    0x2040(%rsp),%rdi
  4028aa:	00 
  4028ab:	b8 00 00 00 00       	mov    $0x0,%eax
  4028b0:	e8 2b e5 ff ff       	callq  400de0 <__isoc99_sscanf@plt>
  4028b5:	e9 95 00 00 00       	jmpq   40294f <submitr+0x593>
  4028ba:	ba 00 20 00 00       	mov    $0x2000,%edx
  4028bf:	48 8d b4 24 40 20 00 	lea    0x2040(%rsp),%rsi
  4028c6:	00 
  4028c7:	48 8d 7c 24 30       	lea    0x30(%rsp),%rdi
  4028cc:	e8 34 f9 ff ff       	callq  402205 <rio_readlineb>
  4028d1:	48 85 c0             	test   %rax,%rax
  4028d4:	7f 79                	jg     40294f <submitr+0x593>
  4028d6:	48 b8 45 72 72 6f 72 	movabs $0x43203a726f727245,%rax
  4028dd:	3a 20 43 
  4028e0:	48 89 03             	mov    %rax,(%rbx)
  4028e3:	48 b8 6c 69 65 6e 74 	movabs $0x6e7520746e65696c,%rax
  4028ea:	20 75 6e 
  4028ed:	48 89 43 08          	mov    %rax,0x8(%rbx)
  4028f1:	48 b8 61 62 6c 65 20 	movabs $0x206f7420656c6261,%rax
  4028f8:	74 6f 20 
  4028fb:	48 89 43 10          	mov    %rax,0x10(%rbx)
  4028ff:	48 b8 72 65 61 64 20 	movabs $0x6165682064616572,%rax
  402906:	68 65 61 
  402909:	48 89 43 18          	mov    %rax,0x18(%rbx)
  40290d:	48 b8 64 65 72 73 20 	movabs $0x6f72662073726564,%rax
  402914:	66 72 6f 
  402917:	48 89 43 20          	mov    %rax,0x20(%rbx)
  40291b:	48 b8 6d 20 74 68 65 	movabs $0x657220656874206d,%rax
  402922:	20 72 65 
  402925:	48 89 43 28          	mov    %rax,0x28(%rbx)
  402929:	48 b8 73 75 6c 74 20 	movabs $0x72657320746c7573,%rax
  402930:	73 65 72 
  402933:	48 89 43 30          	mov    %rax,0x30(%rbx)
  402937:	c7 43 38 76 65 72 00 	movl   $0x726576,0x38(%rbx)
  40293e:	89 ef                	mov    %ebp,%edi
  402940:	e8 eb e3 ff ff       	callq  400d30 <close@plt>
  402945:	b8 ff ff ff ff       	mov    $0xffffffff,%eax
  40294a:	e9 b3 01 00 00       	jmpq   402b02 <submitr+0x746>
  40294f:	0f b6 94 24 40 20 00 	movzbl 0x2040(%rsp),%edx
  402956:	00 
  402957:	b8 0d 00 00 00       	mov    $0xd,%eax
  40295c:	29 d0                	sub    %edx,%eax
  40295e:	75 1b                	jne    40297b <submitr+0x5bf>
  402960:	0f b6 94 24 41 20 00 	movzbl 0x2041(%rsp),%edx
  402967:	00 
  402968:	b8 0a 00 00 00       	mov    $0xa,%eax
  40296d:	29 d0                	sub    %edx,%eax
  40296f:	75 0a                	jne    40297b <submitr+0x5bf>
  402971:	0f b6 84 24 42 20 00 	movzbl 0x2042(%rsp),%eax
  402978:	00 
  402979:	f7 d8                	neg    %eax
  40297b:	85 c0                	test   %eax,%eax
  40297d:	0f 85 37 ff ff ff    	jne    4028ba <submitr+0x4fe>
  402983:	ba 00 20 00 00       	mov    $0x2000,%edx
  402988:	48 8d b4 24 40 20 00 	lea    0x2040(%rsp),%rsi
  40298f:	00 
  402990:	48 8d 7c 24 30       	lea    0x30(%rsp),%rdi
  402995:	e8 6b f8 ff ff       	callq  402205 <rio_readlineb>
  40299a:	48 85 c0             	test   %rax,%rax
  40299d:	0f 8f 83 00 00 00    	jg     402a26 <submitr+0x66a>
  4029a3:	48 b8 45 72 72 6f 72 	movabs $0x43203a726f727245,%rax
  4029aa:	3a 20 43 
  4029ad:	48 89 03             	mov    %rax,(%rbx)
  4029b0:	48 b8 6c 69 65 6e 74 	movabs $0x6e7520746e65696c,%rax
  4029b7:	20 75 6e 
  4029ba:	48 89 43 08          	mov    %rax,0x8(%rbx)
  4029be:	48 b8 61 62 6c 65 20 	movabs $0x206f7420656c6261,%rax
  4029c5:	74 6f 20 
  4029c8:	48 89 43 10          	mov    %rax,0x10(%rbx)
  4029cc:	48 b8 72 65 61 64 20 	movabs $0x6174732064616572,%rax
  4029d3:	73 74 61 
  4029d6:	48 89 43 18          	mov    %rax,0x18(%rbx)
  4029da:	48 b8 74 75 73 20 6d 	movabs $0x7373656d20737574,%rax
  4029e1:	65 73 73 
  4029e4:	48 89 43 20          	mov    %rax,0x20(%rbx)
  4029e8:	48 b8 61 67 65 20 66 	movabs $0x6d6f726620656761,%rax
  4029ef:	72 6f 6d 
  4029f2:	48 89 43 28          	mov    %rax,0x28(%rbx)
  4029f6:	48 b8 20 72 65 73 75 	movabs $0x20746c7573657220,%rax
  4029fd:	6c 74 20 
  402a00:	48 89 43 30          	mov    %rax,0x30(%rbx)
  402a04:	c7 43 38 73 65 72 76 	movl   $0x76726573,0x38(%rbx)
  402a0b:	66 c7 43 3c 65 72    	movw   $0x7265,0x3c(%rbx)
  402a11:	c6 43 3e 00          	movb   $0x0,0x3e(%rbx)
  402a15:	89 ef                	mov    %ebp,%edi
  402a17:	e8 14 e3 ff ff       	callq  400d30 <close@plt>
  402a1c:	b8 ff ff ff ff       	mov    $0xffffffff,%eax
  402a21:	e9 dc 00 00 00       	jmpq   402b02 <submitr+0x746>
  402a26:	44 8b 44 24 1c       	mov    0x1c(%rsp),%r8d
  402a2b:	41 81 f8 c8 00 00 00 	cmp    $0xc8,%r8d
  402a32:	74 37                	je     402a6b <submitr+0x6af>
  402a34:	4c 8d 8c 24 40 80 00 	lea    0x8040(%rsp),%r9
  402a3b:	00 
  402a3c:	b9 e8 35 40 00       	mov    $0x4035e8,%ecx
  402a41:	48 c7 c2 ff ff ff ff 	mov    $0xffffffffffffffff,%rdx
  402a48:	be 01 00 00 00       	mov    $0x1,%esi
  402a4d:	48 89 df             	mov    %rbx,%rdi
  402a50:	b8 00 00 00 00       	mov    $0x0,%eax
  402a55:	e8 26 e4 ff ff       	callq  400e80 <__sprintf_chk@plt>
  402a5a:	89 ef                	mov    %ebp,%edi
  402a5c:	e8 cf e2 ff ff       	callq  400d30 <close@plt>
  402a61:	b8 ff ff ff ff       	mov    $0xffffffff,%eax
  402a66:	e9 97 00 00 00       	jmpq   402b02 <submitr+0x746>
  402a6b:	48 8d b4 24 40 20 00 	lea    0x2040(%rsp),%rsi
  402a72:	00 
  402a73:	48 89 df             	mov    %rbx,%rdi
  402a76:	e8 45 e2 ff ff       	callq  400cc0 <strcpy@plt>
  402a7b:	89 ef                	mov    %ebp,%edi
  402a7d:	e8 ae e2 ff ff       	callq  400d30 <close@plt>
  402a82:	0f b6 03             	movzbl (%rbx),%eax
  402a85:	ba 4f 00 00 00       	mov    $0x4f,%edx
  402a8a:	29 c2                	sub    %eax,%edx
  402a8c:	75 22                	jne    402ab0 <submitr+0x6f4>
  402a8e:	0f b6 4b 01          	movzbl 0x1(%rbx),%ecx
  402a92:	b8 4b 00 00 00       	mov    $0x4b,%eax
  402a97:	29 c8                	sub    %ecx,%eax
  402a99:	75 17                	jne    402ab2 <submitr+0x6f6>
  402a9b:	0f b6 4b 02          	movzbl 0x2(%rbx),%ecx
  402a9f:	b8 0a 00 00 00       	mov    $0xa,%eax
  402aa4:	29 c8                	sub    %ecx,%eax
  402aa6:	75 0a                	jne    402ab2 <submitr+0x6f6>
  402aa8:	0f b6 43 03          	movzbl 0x3(%rbx),%eax
  402aac:	f7 d8                	neg    %eax
  402aae:	eb 02                	jmp    402ab2 <submitr+0x6f6>
  402ab0:	89 d0                	mov    %edx,%eax
  402ab2:	85 c0                	test   %eax,%eax
  402ab4:	74 40                	je     402af6 <submitr+0x73a>
  402ab6:	bf 30 36 40 00       	mov    $0x403630,%edi
  402abb:	b9 05 00 00 00       	mov    $0x5,%ecx
  402ac0:	48 89 de             	mov    %rbx,%rsi
  402ac3:	f3 a6                	repz cmpsb %es:(%rdi),%ds:(%rsi)
  402ac5:	0f 97 c0             	seta   %al
  402ac8:	0f 92 c1             	setb   %cl
  402acb:	29 c8                	sub    %ecx,%eax
  402acd:	0f be c0             	movsbl %al,%eax
  402ad0:	85 c0                	test   %eax,%eax
  402ad2:	74 2e                	je     402b02 <submitr+0x746>
  402ad4:	85 d2                	test   %edx,%edx
  402ad6:	75 13                	jne    402aeb <submitr+0x72f>
  402ad8:	0f b6 43 01          	movzbl 0x1(%rbx),%eax
  402adc:	ba 4b 00 00 00       	mov    $0x4b,%edx
  402ae1:	29 c2                	sub    %eax,%edx
  402ae3:	75 06                	jne    402aeb <submitr+0x72f>
  402ae5:	0f b6 53 02          	movzbl 0x2(%rbx),%edx
  402ae9:	f7 da                	neg    %edx
  402aeb:	85 d2                	test   %edx,%edx
  402aed:	75 0e                	jne    402afd <submitr+0x741>
  402aef:	b8 00 00 00 00       	mov    $0x0,%eax
  402af4:	eb 0c                	jmp    402b02 <submitr+0x746>
  402af6:	b8 00 00 00 00       	mov    $0x0,%eax
  402afb:	eb 05                	jmp    402b02 <submitr+0x746>
  402afd:	b8 ff ff ff ff       	mov    $0xffffffff,%eax
  402b02:	48 8b 9c 24 48 a0 00 	mov    0xa048(%rsp),%rbx
  402b09:	00 
  402b0a:	64 48 33 1c 25 28 00 	xor    %fs:0x28,%rbx
  402b11:	00 00 
  402b13:	74 05                	je     402b1a <submitr+0x75e>
  402b15:	e8 d6 e1 ff ff       	callq  400cf0 <__stack_chk_fail@plt>
  402b1a:	48 81 c4 58 a0 00 00 	add    $0xa058,%rsp
  402b21:	5b                   	pop    %rbx
  402b22:	5d                   	pop    %rbp
  402b23:	41 5c                	pop    %r12
  402b25:	41 5d                	pop    %r13
  402b27:	41 5e                	pop    %r14
  402b29:	41 5f                	pop    %r15
  402b2b:	c3                   	retq   

0000000000402b2c <init_timeout>:
  402b2c:	85 ff                	test   %edi,%edi
  402b2e:	74 23                	je     402b53 <init_timeout+0x27>
  402b30:	53                   	push   %rbx
  402b31:	89 fb                	mov    %edi,%ebx
  402b33:	85 ff                	test   %edi,%edi
  402b35:	79 05                	jns    402b3c <init_timeout+0x10>
  402b37:	bb 00 00 00 00       	mov    $0x0,%ebx
  402b3c:	be f0 20 40 00       	mov    $0x4020f0,%esi
  402b41:	bf 0e 00 00 00       	mov    $0xe,%edi
  402b46:	e8 15 e2 ff ff       	callq  400d60 <signal@plt>
  402b4b:	89 df                	mov    %ebx,%edi
  402b4d:	e8 ce e1 ff ff       	callq  400d20 <alarm@plt>
  402b52:	5b                   	pop    %rbx
  402b53:	f3 c3                	repz retq 

0000000000402b55 <init_driver>:
  402b55:	55                   	push   %rbp
  402b56:	53                   	push   %rbx
  402b57:	48 83 ec 28          	sub    $0x28,%rsp
  402b5b:	48 89 fd             	mov    %rdi,%rbp
  402b5e:	64 48 8b 04 25 28 00 	mov    %fs:0x28,%rax
  402b65:	00 00 
  402b67:	48 89 44 24 18       	mov    %rax,0x18(%rsp)
  402b6c:	31 c0                	xor    %eax,%eax
  402b6e:	be 01 00 00 00       	mov    $0x1,%esi
  402b73:	bf 0d 00 00 00       	mov    $0xd,%edi
  402b78:	e8 e3 e1 ff ff       	callq  400d60 <signal@plt>
  402b7d:	be 01 00 00 00       	mov    $0x1,%esi
  402b82:	bf 1d 00 00 00       	mov    $0x1d,%edi
  402b87:	e8 d4 e1 ff ff       	callq  400d60 <signal@plt>
  402b8c:	be 01 00 00 00       	mov    $0x1,%esi
  402b91:	bf 1d 00 00 00       	mov    $0x1d,%edi
  402b96:	e8 c5 e1 ff ff       	callq  400d60 <signal@plt>
  402b9b:	ba 00 00 00 00       	mov    $0x0,%edx
  402ba0:	be 01 00 00 00       	mov    $0x1,%esi
  402ba5:	bf 02 00 00 00       	mov    $0x2,%edi
  402baa:	e8 e1 e2 ff ff       	callq  400e90 <socket@plt>
  402baf:	85 c0                	test   %eax,%eax
  402bb1:	79 4f                	jns    402c02 <init_driver+0xad>
  402bb3:	48 b8 45 72 72 6f 72 	movabs $0x43203a726f727245,%rax
  402bba:	3a 20 43 
  402bbd:	48 89 45 00          	mov    %rax,0x0(%rbp)
  402bc1:	48 b8 6c 69 65 6e 74 	movabs $0x6e7520746e65696c,%rax
  402bc8:	20 75 6e 
  402bcb:	48 89 45 08          	mov    %rax,0x8(%rbp)
  402bcf:	48 b8 61 62 6c 65 20 	movabs $0x206f7420656c6261,%rax
  402bd6:	74 6f 20 
  402bd9:	48 89 45 10          	mov    %rax,0x10(%rbp)
  402bdd:	48 b8 63 72 65 61 74 	movabs $0x7320657461657263,%rax
  402be4:	65 20 73 
  402be7:	48 89 45 18          	mov    %rax,0x18(%rbp)
  402beb:	c7 45 20 6f 63 6b 65 	movl   $0x656b636f,0x20(%rbp)
  402bf2:	66 c7 45 24 74 00    	movw   $0x74,0x24(%rbp)
  402bf8:	b8 ff ff ff ff       	mov    $0xffffffff,%eax
  402bfd:	e9 2a 01 00 00       	jmpq   402d2c <init_driver+0x1d7>
  402c02:	89 c3                	mov    %eax,%ebx
  402c04:	bf 78 31 40 00       	mov    $0x403178,%edi
  402c09:	e8 62 e1 ff ff       	callq  400d70 <gethostbyname@plt>
  402c0e:	48 85 c0             	test   %rax,%rax
  402c11:	75 68                	jne    402c7b <init_driver+0x126>
  402c13:	48 b8 45 72 72 6f 72 	movabs $0x44203a726f727245,%rax
  402c1a:	3a 20 44 
  402c1d:	48 89 45 00          	mov    %rax,0x0(%rbp)
  402c21:	48 b8 4e 53 20 69 73 	movabs $0x6e7520736920534e,%rax
  402c28:	20 75 6e 
  402c2b:	48 89 45 08          	mov    %rax,0x8(%rbp)
  402c2f:	48 b8 61 62 6c 65 20 	movabs $0x206f7420656c6261,%rax
  402c36:	74 6f 20 
  402c39:	48 89 45 10          	mov    %rax,0x10(%rbp)
  402c3d:	48 b8 72 65 73 6f 6c 	movabs $0x2065766c6f736572,%rax
  402c44:	76 65 20 
  402c47:	48 89 45 18          	mov    %rax,0x18(%rbp)
  402c4b:	48 b8 73 65 72 76 65 	movabs $0x6120726576726573,%rax
  402c52:	72 20 61 
  402c55:	48 89 45 20          	mov    %rax,0x20(%rbp)
  402c59:	c7 45 28 64 64 72 65 	movl   $0x65726464,0x28(%rbp)
  402c60:	66 c7 45 2c 73 73    	movw   $0x7373,0x2c(%rbp)
  402c66:	c6 45 2e 00          	movb   $0x0,0x2e(%rbp)
  402c6a:	89 df                	mov    %ebx,%edi
  402c6c:	e8 bf e0 ff ff       	callq  400d30 <close@plt>
  402c71:	b8 ff ff ff ff       	mov    $0xffffffff,%eax
  402c76:	e9 b1 00 00 00       	jmpq   402d2c <init_driver+0x1d7>
  402c7b:	48 c7 04 24 00 00 00 	movq   $0x0,(%rsp)
  402c82:	00 
  402c83:	48 c7 44 24 08 00 00 	movq   $0x0,0x8(%rsp)
  402c8a:	00 00 
  402c8c:	66 c7 04 24 02 00    	movw   $0x2,(%rsp)
  402c92:	48 63 50 14          	movslq 0x14(%rax),%rdx
  402c96:	48 8b 40 18          	mov    0x18(%rax),%rax
  402c9a:	48 8b 30             	mov    (%rax),%rsi
  402c9d:	48 8d 7c 24 04       	lea    0x4(%rsp),%rdi
  402ca2:	b9 0c 00 00 00       	mov    $0xc,%ecx
  402ca7:	e8 d4 e0 ff ff       	callq  400d80 <__memmove_chk@plt>
  402cac:	66 c7 44 24 02 3b 78 	movw   $0x783b,0x2(%rsp)
  402cb3:	ba 10 00 00 00       	mov    $0x10,%edx
  402cb8:	48 89 e6             	mov    %rsp,%rsi
  402cbb:	89 df                	mov    %ebx,%edi
  402cbd:	e8 9e e1 ff ff       	callq  400e60 <connect@plt>
  402cc2:	85 c0                	test   %eax,%eax
  402cc4:	79 50                	jns    402d16 <init_driver+0x1c1>
  402cc6:	48 b8 45 72 72 6f 72 	movabs $0x55203a726f727245,%rax
  402ccd:	3a 20 55 
  402cd0:	48 89 45 00          	mov    %rax,0x0(%rbp)
  402cd4:	48 b8 6e 61 62 6c 65 	movabs $0x6f7420656c62616e,%rax
  402cdb:	20 74 6f 
  402cde:	48 89 45 08          	mov    %rax,0x8(%rbp)
  402ce2:	48 b8 20 63 6f 6e 6e 	movabs $0x7463656e6e6f6320,%rax
  402ce9:	65 63 74 
  402cec:	48 89 45 10          	mov    %rax,0x10(%rbp)
  402cf0:	48 b8 20 74 6f 20 73 	movabs $0x76726573206f7420,%rax
  402cf7:	65 72 76 
  402cfa:	48 89 45 18          	mov    %rax,0x18(%rbp)
  402cfe:	66 c7 45 20 65 72    	movw   $0x7265,0x20(%rbp)
  402d04:	c6 45 22 00          	movb   $0x0,0x22(%rbp)
  402d08:	89 df                	mov    %ebx,%edi
  402d0a:	e8 21 e0 ff ff       	callq  400d30 <close@plt>
  402d0f:	b8 ff ff ff ff       	mov    $0xffffffff,%eax
  402d14:	eb 16                	jmp    402d2c <init_driver+0x1d7>
  402d16:	89 df                	mov    %ebx,%edi
  402d18:	e8 13 e0 ff ff       	callq  400d30 <close@plt>
  402d1d:	66 c7 45 00 4f 4b    	movw   $0x4b4f,0x0(%rbp)
  402d23:	c6 45 02 00          	movb   $0x0,0x2(%rbp)
  402d27:	b8 00 00 00 00       	mov    $0x0,%eax
  402d2c:	48 8b 4c 24 18       	mov    0x18(%rsp),%rcx
  402d31:	64 48 33 0c 25 28 00 	xor    %fs:0x28,%rcx
  402d38:	00 00 
  402d3a:	74 05                	je     402d41 <init_driver+0x1ec>
  402d3c:	e8 af df ff ff       	callq  400cf0 <__stack_chk_fail@plt>
  402d41:	48 83 c4 28          	add    $0x28,%rsp
  402d45:	5b                   	pop    %rbx
  402d46:	5d                   	pop    %rbp
  402d47:	c3                   	retq   

0000000000402d48 <driver_post>:
  402d48:	53                   	push   %rbx
  402d49:	4c 89 cb             	mov    %r9,%rbx
  402d4c:	45 85 c0             	test   %r8d,%r8d
  402d4f:	74 27                	je     402d78 <driver_post+0x30>
  402d51:	48 89 ca             	mov    %rcx,%rdx
  402d54:	be 35 36 40 00       	mov    $0x403635,%esi
  402d59:	bf 01 00 00 00       	mov    $0x1,%edi
  402d5e:	b8 00 00 00 00       	mov    $0x0,%eax
  402d63:	e8 98 e0 ff ff       	callq  400e00 <__printf_chk@plt>
  402d68:	66 c7 03 4f 4b       	movw   $0x4b4f,(%rbx)
  402d6d:	c6 43 02 00          	movb   $0x0,0x2(%rbx)
  402d71:	b8 00 00 00 00       	mov    $0x0,%eax
  402d76:	eb 3f                	jmp    402db7 <driver_post+0x6f>
  402d78:	48 85 ff             	test   %rdi,%rdi
  402d7b:	74 2c                	je     402da9 <driver_post+0x61>
  402d7d:	80 3f 00             	cmpb   $0x0,(%rdi)
  402d80:	74 27                	je     402da9 <driver_post+0x61>
  402d82:	48 83 ec 08          	sub    $0x8,%rsp
  402d86:	41 51                	push   %r9
  402d88:	49 89 c9             	mov    %rcx,%r9
  402d8b:	49 89 d0             	mov    %rdx,%r8
  402d8e:	48 89 f9             	mov    %rdi,%rcx
  402d91:	48 89 f2             	mov    %rsi,%rdx
  402d94:	be 78 3b 00 00       	mov    $0x3b78,%esi
  402d99:	bf 78 31 40 00       	mov    $0x403178,%edi
  402d9e:	e8 19 f6 ff ff       	callq  4023bc <submitr>
  402da3:	48 83 c4 10          	add    $0x10,%rsp
  402da7:	eb 0e                	jmp    402db7 <driver_post+0x6f>
  402da9:	66 c7 03 4f 4b       	movw   $0x4b4f,(%rbx)
  402dae:	c6 43 02 00          	movb   $0x0,0x2(%rbx)
  402db2:	b8 00 00 00 00       	mov    $0x0,%eax
  402db7:	5b                   	pop    %rbx
  402db8:	c3                   	retq   

0000000000402db9 <check>:
  402db9:	89 f8                	mov    %edi,%eax
  402dbb:	c1 e8 1c             	shr    $0x1c,%eax
  402dbe:	85 c0                	test   %eax,%eax
  402dc0:	74 1d                	je     402ddf <check+0x26>
  402dc2:	b9 00 00 00 00       	mov    $0x0,%ecx
  402dc7:	eb 0b                	jmp    402dd4 <check+0x1b>
  402dc9:	89 f8                	mov    %edi,%eax
  402dcb:	d3 e8                	shr    %cl,%eax
  402dcd:	3c 0a                	cmp    $0xa,%al
  402dcf:	74 14                	je     402de5 <check+0x2c>
  402dd1:	83 c1 08             	add    $0x8,%ecx
  402dd4:	83 f9 1f             	cmp    $0x1f,%ecx
  402dd7:	7e f0                	jle    402dc9 <check+0x10>
  402dd9:	b8 01 00 00 00       	mov    $0x1,%eax
  402dde:	c3                   	retq   
  402ddf:	b8 00 00 00 00       	mov    $0x0,%eax
  402de4:	c3                   	retq   
  402de5:	b8 00 00 00 00       	mov    $0x0,%eax
  402dea:	c3                   	retq   

0000000000402deb <gencookie>:
  402deb:	53                   	push   %rbx
  402dec:	83 c7 01             	add    $0x1,%edi
  402def:	e8 ac de ff ff       	callq  400ca0 <srandom@plt>
  402df4:	e8 c7 df ff ff       	callq  400dc0 <random@plt>
  402df9:	89 c3                	mov    %eax,%ebx
  402dfb:	89 c7                	mov    %eax,%edi
  402dfd:	e8 b7 ff ff ff       	callq  402db9 <check>
  402e02:	85 c0                	test   %eax,%eax
  402e04:	74 ee                	je     402df4 <gencookie+0x9>
  402e06:	89 d8                	mov    %ebx,%eax
  402e08:	5b                   	pop    %rbx
  402e09:	c3                   	retq   
  402e0a:	66 0f 1f 44 00 00    	nopw   0x0(%rax,%rax,1)

0000000000402e10 <__libc_csu_init>:
  402e10:	41 57                	push   %r15
  402e12:	41 56                	push   %r14
  402e14:	41 89 ff             	mov    %edi,%r15d
  402e17:	41 55                	push   %r13
  402e19:	41 54                	push   %r12
  402e1b:	4c 8d 25 ee 0f 20 00 	lea    0x200fee(%rip),%r12        # 603e10 <__frame_dummy_init_array_entry>
  402e22:	55                   	push   %rbp
  402e23:	48 8d 2d ee 0f 20 00 	lea    0x200fee(%rip),%rbp        # 603e18 <__init_array_end>
  402e2a:	53                   	push   %rbx
  402e2b:	49 89 f6             	mov    %rsi,%r14
  402e2e:	49 89 d5             	mov    %rdx,%r13
  402e31:	4c 29 e5             	sub    %r12,%rbp
  402e34:	48 83 ec 08          	sub    $0x8,%rsp
  402e38:	48 c1 fd 03          	sar    $0x3,%rbp
  402e3c:	e8 07 de ff ff       	callq  400c48 <_init>
  402e41:	48 85 ed             	test   %rbp,%rbp
  402e44:	74 20                	je     402e66 <__libc_csu_init+0x56>
  402e46:	31 db                	xor    %ebx,%ebx
  402e48:	0f 1f 84 00 00 00 00 	nopl   0x0(%rax,%rax,1)
  402e4f:	00 
  402e50:	4c 89 ea             	mov    %r13,%rdx
  402e53:	4c 89 f6             	mov    %r14,%rsi
  402e56:	44 89 ff             	mov    %r15d,%edi
  402e59:	41 ff 14 dc          	callq  *(%r12,%rbx,8)
  402e5d:	48 83 c3 01          	add    $0x1,%rbx
  402e61:	48 39 eb             	cmp    %rbp,%rbx
  402e64:	75 ea                	jne    402e50 <__libc_csu_init+0x40>
  402e66:	48 83 c4 08          	add    $0x8,%rsp
  402e6a:	5b                   	pop    %rbx
  402e6b:	5d                   	pop    %rbp
  402e6c:	41 5c                	pop    %r12
  402e6e:	41 5d                	pop    %r13
  402e70:	41 5e                	pop    %r14
  402e72:	41 5f                	pop    %r15
  402e74:	c3                   	retq   
  402e75:	90                   	nop
  402e76:	66 2e 0f 1f 84 00 00 	nopw   %cs:0x0(%rax,%rax,1)
  402e7d:	00 00 00 

0000000000402e80 <__libc_csu_fini>:
  402e80:	f3 c3                	repz retq 

Disassembly of section .fini:

0000000000402e84 <_fini>:
  402e84:	48 83 ec 08          	sub    $0x8,%rsp
  402e88:	48 83 c4 08          	add    $0x8,%rsp
  402e8c:	c3                   	retq   
